Archive member included because of file (symbol)

build/z1/contiki-ng-z1.a(uart0-putchar.o)
                              build/z1/obj/contiki-main.o (putchar)
build/z1/contiki-ng-z1.a(platform.o)
                              build/z1/obj/contiki-main.o (platform_init_stage_one)
build/z1/contiki-ng-z1.a(msp430.o)
                              build/z1/contiki-ng-z1.a(platform.o) (msp430_dco_required)
build/z1/contiki-ng-z1.a(clock.o)
                              build/z1/obj/contiki-main.o (clock_init)
build/z1/contiki-ng-z1.a(watchdog.o)
                              build/z1/obj/contiki-main.o (watchdog_start)
build/z1/contiki-ng-z1.a(rtimer-arch.o)
                              build/z1/contiki-ng-z1.a(platform.o) (rtimer_arch_now)
build/z1/contiki-ng-z1.a(serial-shell.o)
                              build/z1/obj/contiki-main.o (serial_shell_init)
build/z1/contiki-ng-z1.a(orchestra-rule-)
                              udp-server.o (unicast_per_neighbor_rpl_ns)
build/z1/contiki-ng-z1.a(orchestra-rule-)
                              udp-server.o (default_common)
build/z1/contiki-ng-z1.a(orchestra.o)
                              udp-server.o (orchestra_init)
build/z1/contiki-ng-z1.a(orchestra-rule-)
                              udp-server.o (eb_per_time_source)
build/z1/contiki-ng-z1.a(autostart.o)
                              build/z1/obj/contiki-main.o (autostart_start)
build/z1/contiki-ng-z1.a(ctimer.o)
                              build/z1/obj/contiki-main.o (ctimer_init)
build/z1/contiki-ng-z1.a(energest.o)
                              build/z1/obj/contiki-main.o (energest_init)
build/z1/contiki-ng-z1.a(etimer.o)
                              build/z1/contiki-ng-z1.a(clock.o) (etimer_request_poll)
build/z1/contiki-ng-z1.a(log.o)
                              build/z1/obj/contiki-main.o (log_6addr)
build/z1/contiki-ng-z1.a(rtimer.o)
                              build/z1/obj/contiki-main.o (rtimer_init)
build/z1/contiki-ng-z1.a(node-id.o)
                              build/z1/obj/contiki-main.o (node_id_init)
build/z1/contiki-ng-z1.a(process.o)
                              build/z1/contiki-ng-z1.a(ctimer.o) (process_current)
build/z1/contiki-ng-z1.a(timer.o)
                              build/z1/contiki-ng-z1.a(etimer.o) (timer_set)
build/z1/contiki-ng-z1.a(stack-check.o)
                              build/z1/obj/contiki-main.o (stack_check_init)
build/z1/contiki-ng-z1.a(list.o)
                              build/z1/contiki-ng-z1.a(ctimer.o) (list_init)
build/z1/contiki-ng-z1.a(random.o)
                              build/z1/contiki-ng-z1.a(platform.o) (random_init)
build/z1/contiki-ng-z1.a(serial-line.o)
                              build/z1/contiki-ng-z1.a(serial-shell.o) (serial_line_event_message)
build/z1/contiki-ng-z1.a(queuebuf.o)
                              build/z1/obj/contiki-main.o (queuebuf_init)
build/z1/contiki-ng-z1.a(packetbuf.o)
                              build/z1/contiki-ng-z1.a(queuebuf.o) (packetbuf_copyto)
build/z1/contiki-ng-z1.a(netstack.o)
                              build/z1/obj/contiki-main.o (netstack_init)
build/z1/contiki-ng-z1.a(linkaddr.o)
                              build/z1/contiki-ng-z1.a(platform.o) (linkaddr_copy)
build/z1/contiki-ng-z1.a(tsch.o)
                              build/z1/contiki-ng-z1.a(orchestra-rule-) (tsch_broadcast_address)
build/z1/contiki-ng-z1.a(tsch-queue.o)
                              build/z1/contiki-ng-z1.a(tsch.o) (tsch_queue_get_nbr)
build/z1/contiki-ng-z1.a(tsch-schedule.o)
                              build/z1/contiki-ng-z1.a(tsch.o) (tsch_schedule_get_slotframe_by_handle)
build/z1/contiki-ng-z1.a(tsch-slot-opera)
                              build/z1/contiki-ng-z1.a(tsch.o) (dequeued_ringbuf)
build/z1/contiki-ng-z1.a(tsch-packet.o)
                              build/z1/contiki-ng-z1.a(tsch-slot-opera) (tsch_packet_create_eack)
build/z1/contiki-ng-z1.a(tsch-security.o)
                              build/z1/contiki-ng-z1.a(tsch.o) (tsch_security_set_packetbuf_attr)
build/z1/contiki-ng-z1.a(tsch-rpl.o)
                              build/z1/contiki-ng-z1.a(tsch.o) (tsch_rpl_callback_ka_sent)
build/z1/contiki-ng-z1.a(tsch-adaptive-t)
                              build/z1/contiki-ng-z1.a(tsch-slot-opera) (tsch_timesync_adaptive_compensate)
build/z1/contiki-ng-z1.a(uip-ds6.o)
                              build/z1/obj/contiki-main.o (uip_ds6_get_link_local)
build/z1/contiki-ng-z1.a(uiplib.o)
                              build/z1/contiki-ng-z1.a(log.o) (uiplib_ipaddr_snprint)
build/z1/contiki-ng-z1.a(uip-ds6-route.o)
                              build/z1/contiki-ng-z1.a(uip-ds6.o) (uip_ds6_route_init)
build/z1/contiki-ng-z1.a(tcpip.o)
                              build/z1/obj/contiki-main.o (tcpip_process)
build/z1/contiki-ng-z1.a(uip6.o)
                              build/z1/contiki-ng-z1.a(tcpip.o) (uip_aligned_buf)
build/z1/contiki-ng-z1.a(uip-ds6-nbr.o)
                              build/z1/contiki-ng-z1.a(uip-ds6.o) (uip_ds6_neighbors_init)
build/z1/contiki-ng-z1.a(uip-nd6.o)
                              build/z1/contiki-ng-z1.a(uip6.o) (uip_nd6_init)
build/z1/contiki-ng-z1.a(simple-udp.o)
                              udp-server.o (simple_udp_register)
build/z1/contiki-ng-z1.a(sicslowpan.o)
                              build/z1/contiki-ng-z1.a(orchestra.o) (netstack_sniffer_add)
build/z1/contiki-ng-z1.a(rpl-neighbor.o)
                              build/z1/contiki-ng-z1.a(tsch-rpl.o) (rpl_neighbor_get_ipaddr)
build/z1/contiki-ng-z1.a(rpl-dag.o)
                              build/z1/contiki-ng-z1.a(tsch-rpl.o) (curr_instance)
build/z1/contiki-ng-z1.a(rpl-timers.o)
                              build/z1/contiki-ng-z1.a(rpl-dag.o) (rpl_timers_schedule_periodic_dis)
build/z1/contiki-ng-z1.a(rpl.o)
                              build/z1/contiki-ng-z1.a(rpl-timers.o) (rpl_get_leaf_only)
build/z1/contiki-ng-z1.a(rpl-mrhof.o)
                              build/z1/contiki-ng-z1.a(rpl-dag.o) (rpl_mrhof)
build/z1/contiki-ng-z1.a(rpl-icmp6.o)
                              build/z1/contiki-ng-z1.a(rpl-dag.o) (rpl_icmp6_update_nbr_table)
build/z1/contiki-ng-z1.a(rpl-dag-root.o)
                              build/z1/contiki-ng-z1.a(rpl.o) (rpl_dag_root_set_prefix)
build/z1/contiki-ng-z1.a(contiki-z1-plat)
                              build/z1/contiki-ng-z1.a(platform.o) (init_platform)
build/z1/contiki-ng-z1.a(leds.o)
                              build/z1/contiki-ng-z1.a(platform.o) (leds_init)
build/z1/contiki-ng-z1.a(xmem.o)
                              build/z1/contiki-ng-z1.a(platform.o) (xmem_init)
build/z1/contiki-ng-z1.a(spi-legacy.o)
                              build/z1/contiki-ng-z1.a(xmem.o) (spi_init)
build/z1/contiki-ng-z1.a(cc2420.o)
                              build/z1/contiki-ng-z1.a(platform.o) (cc2420_set_pan_addr)
build/z1/contiki-ng-z1.a(cc2420-arch.o)
                              build/z1/contiki-ng-z1.a(cc2420.o) (cc2420_arch_init)
build/z1/contiki-ng-z1.a(cc2420-arch-sfd)
                              build/z1/contiki-ng-z1.a(cc2420-arch.o) (cc2420_arch_sfd_init)
build/z1/contiki-ng-z1.a(node-id-z1.o)
                              build/z1/contiki-ng-z1.a(platform.o) (node_id_z1_restore)
build/z1/contiki-ng-z1.a(sensors.o)
                              build/z1/contiki-ng-z1.a(contiki-z1-plat) (sensors_process)
build/z1/contiki-ng-z1.a(uart0.o)
                              build/z1/contiki-ng-z1.a(platform.o) (uart0_active)
build/z1/contiki-ng-z1.a(z1-sensors.o)
                              build/z1/contiki-ng-z1.a(sensors.o) (sensors_flags)
build/z1/contiki-ng-z1.a(adxl345.o)
                              build/z1/contiki-ng-z1.a(platform.o) (adxl345)
build/z1/contiki-ng-z1.a(tmp102.o)
                              build/z1/contiki-ng-z1.a(z1-sensors.o) (tmp102)
build/z1/contiki-ng-z1.a(leds-arch.o)
                              build/z1/contiki-ng-z1.a(leds.o) (leds_arch_init)
build/z1/contiki-ng-z1.a(int-master.o)
                              build/z1/contiki-ng-z1.a(tsch-slot-opera) (int_master_read_and_disable)
build/z1/contiki-ng-z1.a(shell.o)
                              build/z1/contiki-ng-z1.a(serial-shell.o) (shell_input)
build/z1/contiki-ng-z1.a(shell-commands.)
                              build/z1/contiki-ng-z1.a(shell.o) (shell_commands_init)
build/z1/contiki-ng-z1.a(stimer.o)
                              build/z1/contiki-ng-z1.a(uip-ds6.o) (stimer_set)
build/z1/contiki-ng-z1.a(ringbuf.o)
                              build/z1/contiki-ng-z1.a(serial-line.o) (ringbuf_init)
build/z1/contiki-ng-z1.a(ccm-star.o)
                              build/z1/contiki-ng-z1.a(tsch-security.o) (ccm_star_driver)
build/z1/contiki-ng-z1.a(ringbufindex.o)
                              build/z1/contiki-ng-z1.a(tsch.o) (ringbufindex_init)
build/z1/contiki-ng-z1.a(memb.o)
                              build/z1/contiki-ng-z1.a(queuebuf.o) (memb_init)
build/z1/contiki-ng-z1.a(nbr-table.o)
                              build/z1/contiki-ng-z1.a(uip-ds6-nbr.o) (nbr_table_register)
build/z1/contiki-ng-z1.a(link-stats.o)
                              build/z1/contiki-ng-z1.a(rpl-neighbor.o) (link_stats_from_lladdr)
build/z1/contiki-ng-z1.a(mac-sequence.o)
                              build/z1/contiki-ng-z1.a(tsch.o) (mac_sequence_is_duplicate)
build/z1/contiki-ng-z1.a(mac.o)
                              build/z1/contiki-ng-z1.a(tsch.o) (mac_call_sent_callback)
build/z1/contiki-ng-z1.a(frame802154e-ie)
                              build/z1/contiki-ng-z1.a(tsch-packet.o) (frame80215e_create_ie_header_ack_nack_time_correction)
build/z1/contiki-ng-z1.a(framer-802154.o)
                              build/z1/contiki-ng-z1.a(tsch-packet.o) (framer_802154_setup_params)
build/z1/contiki-ng-z1.a(frame802154.o)
                              build/z1/contiki-ng-z1.a(shell-commands.) (frame802154_get_pan_id)
build/z1/contiki-ng-z1.a(cc2420-tsch-15m)
                              build/z1/contiki-ng-z1.a(tsch.o) (tsch_timeslot_timing_us_15000)
build/z1/contiki-ng-z1.a(uipbuf.o)
                              build/z1/contiki-ng-z1.a(uip6.o) (uipbuf_add_ext_hdr)
build/z1/contiki-ng-z1.a(uip-icmp6.o)
                              build/z1/contiki-ng-z1.a(uip6.o) (uip_icmp6_input)
build/z1/contiki-ng-z1.a(uip-sr.o)
                              build/z1/contiki-ng-z1.a(rpl-dag-root.o) (uip_sr_num_nodes)
build/z1/contiki-ng-z1.a(uip-udp-packet.)
                              build/z1/contiki-ng-z1.a(simple-udp.o) (uip_udp_packet_sendto)
build/z1/contiki-ng-z1.a(rpl-nbr-policy.)
                              build/z1/contiki-ng-z1.a(nbr-table.o) (rpl_nbr_policy_find_removable)
build/z1/contiki-ng-z1.a(rpl-ext-header.)
                              build/z1/contiki-ng-z1.a(rpl.o) (rpl_ext_header_srh_get_next_hop)
build/z1/contiki-ng-z1.a(i2cmaster.o)
                              build/z1/contiki-ng-z1.a(adxl345.o) (i2c_receiveinit)
build/z1/contiki-ng-z1.a(button-sensor.o)
                              build/z1/contiki-ng-z1.a(z1-sensors.o) (button_sensor)
/opt/compiler/mspgcc-4.7.3/bin/../lib/gcc/msp430/4.7.3/mcpu-430x/mmpy-16/msr20/mc20/libgcc.a(_mulsi3.o)
                              build/z1/contiki-ng-z1.a(tsch-slot-opera) (__mulsi3)
/opt/compiler/mspgcc-4.7.3/bin/../lib/gcc/msp430/4.7.3/mcpu-430x/mmpy-16/msr20/mc20/libgcc.a(_mulsidi3.o)
                              build/z1/contiki-ng-z1.a(tsch-adaptive-t) (__mulsidi3)
/opt/compiler/mspgcc-4.7.3/bin/../lib/gcc/msp430/4.7.3/mcpu-430x/mmpy-16/msr20/mc20/libgcc.a(_muldi3.o)
                              build/z1/contiki-ng-z1.a(tsch-slot-opera) (__muldi3)
/opt/compiler/mspgcc-4.7.3/bin/../lib/gcc/msp430/4.7.3/mcpu-430x/mmpy-16/msr20/mc20/libgcc.a(_udivmod16.o)
                              build/z1/contiki-ng-z1.a(tsch-slot-opera) (__udivhi3)
/opt/compiler/mspgcc-4.7.3/bin/../lib/gcc/msp430/4.7.3/mcpu-430x/mmpy-16/msr20/mc20/libgcc.a(_divmod16.o)
                              build/z1/contiki-ng-z1.a(tmp102.o) (__divhi3)
/opt/compiler/mspgcc-4.7.3/bin/../lib/gcc/msp430/4.7.3/mcpu-430x/mmpy-16/msr20/mc20/libgcc.a(_udivmod32.o)
                              build/z1/contiki-ng-z1.a(tsch.o) (__udivsi3)
/opt/compiler/mspgcc-4.7.3/bin/../lib/gcc/msp430/4.7.3/mcpu-430x/mmpy-16/msr20/mc20/libgcc.a(_divmod32.o)
                              build/z1/contiki-ng-z1.a(tsch.o) (__divsi3)
/opt/compiler/mspgcc-4.7.3/bin/../lib/gcc/msp430/4.7.3/mcpu-430x/mmpy-16/msr20/mc20/libgcc.a(_divmod64.o)
                              build/z1/contiki-ng-z1.a(tsch-adaptive-t) (__divdi3)
/opt/compiler/mspgcc-4.7.3/bin/../lib/gcc/msp430/4.7.3/mcpu-430x/mmpy-16/msr20/mc20/libgcc.a(_addsub_sf.o)
                              build/z1/contiki-ng-z1.a(tsch.o) (__subsf3)
/opt/compiler/mspgcc-4.7.3/bin/../lib/gcc/msp430/4.7.3/mcpu-430x/mmpy-16/msr20/mc20/libgcc.a(_mul_sf.o)
                              build/z1/contiki-ng-z1.a(tsch.o) (__mulsf3)
/opt/compiler/mspgcc-4.7.3/bin/../lib/gcc/msp430/4.7.3/mcpu-430x/mmpy-16/msr20/mc20/libgcc.a(_eq_sf.o)
                              build/z1/contiki-ng-z1.a(tsch-schedule.o) (__eqsf2)
/opt/compiler/mspgcc-4.7.3/bin/../lib/gcc/msp430/4.7.3/mcpu-430x/mmpy-16/msr20/mc20/libgcc.a(_ne_sf.o)
                              build/z1/contiki-ng-z1.a(tsch.o) (__nesf2)
/opt/compiler/mspgcc-4.7.3/bin/../lib/gcc/msp430/4.7.3/mcpu-430x/mmpy-16/msr20/mc20/libgcc.a(_gt_sf.o)
                              build/z1/contiki-ng-z1.a(tsch.o) (__gtsf2)
/opt/compiler/mspgcc-4.7.3/bin/../lib/gcc/msp430/4.7.3/mcpu-430x/mmpy-16/msr20/mc20/libgcc.a(_lt_sf.o)
                              build/z1/contiki-ng-z1.a(tsch.o) (__ltsf2)
/opt/compiler/mspgcc-4.7.3/bin/../lib/gcc/msp430/4.7.3/mcpu-430x/mmpy-16/msr20/mc20/libgcc.a(_le_sf.o)
                              build/z1/contiki-ng-z1.a(tsch.o) (__lesf2)
/opt/compiler/mspgcc-4.7.3/bin/../lib/gcc/msp430/4.7.3/mcpu-430x/mmpy-16/msr20/mc20/libgcc.a(_si_to_sf.o)
                              build/z1/contiki-ng-z1.a(tsch.o) (__floatsisf)
/opt/compiler/mspgcc-4.7.3/bin/../lib/gcc/msp430/4.7.3/mcpu-430x/mmpy-16/msr20/mc20/libgcc.a(_sf_to_si.o)
                              build/z1/contiki-ng-z1.a(tsch.o) (__fixsfsi)
/opt/compiler/mspgcc-4.7.3/bin/../lib/gcc/msp430/4.7.3/mcpu-430x/mmpy-16/msr20/mc20/libgcc.a(_thenan_sf.o)
                              /opt/compiler/mspgcc-4.7.3/bin/../lib/gcc/msp430/4.7.3/mcpu-430x/mmpy-16/msr20/mc20/libgcc.a(_addsub_sf.o) (__thenan_sf)
/opt/compiler/mspgcc-4.7.3/bin/../lib/gcc/msp430/4.7.3/mcpu-430x/mmpy-16/msr20/mc20/libgcc.a(_udivmod64.o)
                              /opt/compiler/mspgcc-4.7.3/bin/../lib/gcc/msp430/4.7.3/mcpu-430x/mmpy-16/msr20/mc20/libgcc.a(_divmod64.o) (__xabi_udivmod64)
/opt/compiler/mspgcc-4.7.3/bin/../lib/gcc/msp430/4.7.3/mcpu-430x/mmpy-16/msr20/mc20/libgcc.a(_clzsi2.o)
                              /opt/compiler/mspgcc-4.7.3/bin/../lib/gcc/msp430/4.7.3/mcpu-430x/mmpy-16/msr20/mc20/libgcc.a(_si_to_sf.o) (__clzsi2)
/opt/compiler/mspgcc-4.7.3/bin/../lib/gcc/msp430/4.7.3/mcpu-430x/mmpy-16/msr20/mc20/libgcc.a(_pack_sf.o)
                              /opt/compiler/mspgcc-4.7.3/bin/../lib/gcc/msp430/4.7.3/mcpu-430x/mmpy-16/msr20/mc20/libgcc.a(_addsub_sf.o) (__pack_f)
/opt/compiler/mspgcc-4.7.3/bin/../lib/gcc/msp430/4.7.3/mcpu-430x/mmpy-16/msr20/mc20/libgcc.a(_unpack_sf.o)
                              /opt/compiler/mspgcc-4.7.3/bin/../lib/gcc/msp430/4.7.3/mcpu-430x/mmpy-16/msr20/mc20/libgcc.a(_addsub_sf.o) (__unpack_f)
/opt/compiler/mspgcc-4.7.3/bin/../lib/gcc/msp430/4.7.3/mcpu-430x/mmpy-16/msr20/mc20/libgcc.a(_fpcmp_parts_sf.o)
                              /opt/compiler/mspgcc-4.7.3/bin/../lib/gcc/msp430/4.7.3/mcpu-430x/mmpy-16/msr20/mc20/libgcc.a(_eq_sf.o) (__fpcmp_parts_f)
/opt/compiler/mspgcc-4.7.3/bin/../lib/gcc/msp430/4.7.3/mcpu-430x/mmpy-16/msr20/mc20/libgcc.a(_clz.o)
                              /opt/compiler/mspgcc-4.7.3/bin/../lib/gcc/msp430/4.7.3/mcpu-430x/mmpy-16/msr20/mc20/libgcc.a(_clzsi2.o) (__clz_tab)
/opt/compiler/mspgcc-4.7.3/bin/../lib/gcc/msp430/4.7.3/../../../../msp430/lib/mcpu-430x/mmpy-16/msr20/mc20/libc.a(strtol.o)
                              build/z1/contiki-ng-z1.a(shell-commands.) (strtol)
/opt/compiler/mspgcc-4.7.3/bin/../lib/gcc/msp430/4.7.3/../../../../msp430/lib/mcpu-430x/mmpy-16/msr20/mc20/libc.a(printf.o)
                              udp-server.o (printf)
/opt/compiler/mspgcc-4.7.3/bin/../lib/gcc/msp430/4.7.3/../../../../msp430/lib/mcpu-430x/mmpy-16/msr20/mc20/libc.a(sprintf.o)
                              build/z1/contiki-ng-z1.a(log.o) (snprintf)
/opt/compiler/mspgcc-4.7.3/bin/../lib/gcc/msp430/4.7.3/../../../../msp430/lib/mcpu-430x/mmpy-16/msr20/mc20/libc.a(vuprintf.o)
                              /opt/compiler/mspgcc-4.7.3/bin/../lib/gcc/msp430/4.7.3/../../../../msp430/lib/mcpu-430x/mmpy-16/msr20/mc20/libc.a(printf.o) (vuprintf)
/opt/compiler/mspgcc-4.7.3/bin/../lib/gcc/msp430/4.7.3/../../../../msp430/lib/mcpu-430x/mmpy-16/msr20/mc20/libc.a(puts.o)
                              build/z1/obj/contiki-main.o (puts)
/opt/compiler/mspgcc-4.7.3/bin/../lib/gcc/msp430/4.7.3/../../../../msp430/lib/mcpu-430x/mmpy-16/msr20/mc20/libc.a(rand.o)
                              build/z1/contiki-ng-z1.a(random.o) (rand)
/opt/compiler/mspgcc-4.7.3/bin/../lib/gcc/msp430/4.7.3/../../../../msp430/lib/mcpu-430x/mmpy-16/msr20/mc20/libc.a(strchr.o)
                              build/z1/contiki-ng-z1.a(shell.o) (strchr)
/opt/compiler/mspgcc-4.7.3/bin/../lib/gcc/msp430/4.7.3/../../../../msp430/lib/mcpu-430x/mmpy-16/msr20/mc20/libc.a(strcmp.o)
                              build/z1/contiki-ng-z1.a(log.o) (strcmp)
/opt/compiler/mspgcc-4.7.3/bin/../lib/gcc/msp430/4.7.3/../../../../msp430/lib/mcpu-430x/mmpy-16/msr20/mc20/libc.a(strncmp.o)
                              build/z1/contiki-ng-z1.a(sensors.o) (strncmp)
/opt/compiler/mspgcc-4.7.3/bin/../lib/gcc/msp430/4.7.3/../../../../msp430/lib/mcpu-430x/mmpy-16/msr20/mc20/libc.a(memcmp.o)
                              build/z1/contiki-ng-z1.a(linkaddr.o) (memcmp)
/opt/compiler/mspgcc-4.7.3/bin/../lib/gcc/msp430/4.7.3/../../../../msp430/lib/mcpu-430x/mmpy-16/msr20/mc20/libc.a(strcpy.o)
                              build/z1/contiki-ng-z1.a(shell.o) (strcpy)
/opt/compiler/mspgcc-4.7.3/bin/../lib/gcc/msp430/4.7.3/../../../../msp430/lib/mcpu-430x/mmpy-16/msr20/mc20/libc.a(memcpy.o)
                              udp-server.o (memcpy)
/opt/compiler/mspgcc-4.7.3/bin/../lib/gcc/msp430/4.7.3/../../../../msp430/lib/mcpu-430x/mmpy-16/msr20/mc20/libc.a(memmove.o)
                              build/z1/contiki-ng-z1.a(tsch-packet.o) (memmove)
/opt/compiler/mspgcc-4.7.3/bin/../lib/gcc/msp430/4.7.3/../../../../msp430/lib/mcpu-430x/mmpy-16/msr20/mc20/libc.a(memset.o)
                              udp-server.o (memset)
/opt/compiler/mspgcc-4.7.3/bin/../lib/gcc/msp430/4.7.3/../../../../msp430/lib/mcpu-430x/mmpy-16/msr20/mc20/libc.a(strcat.o)
                              build/z1/contiki-ng-z1.a(tsch-schedule.o) (strcat)
/opt/compiler/mspgcc-4.7.3/bin/../lib/gcc/msp430/4.7.3/../../../../msp430/lib/mcpu-430x/mmpy-16/msr20/mc20/libc.a(ldiv.o)
                              /opt/compiler/mspgcc-4.7.3/bin/../lib/gcc/msp430/4.7.3/../../../../msp430/lib/mcpu-430x/mmpy-16/msr20/mc20/libc.a(strtol.o) (ldiv)
/opt/compiler/mspgcc-4.7.3/bin/../lib/gcc/msp430/4.7.3/../../../../msp430/lib/mcpu-430x/mmpy-16/msr20/mc20/libc.a(errno.o)
                              /opt/compiler/mspgcc-4.7.3/bin/../lib/gcc/msp430/4.7.3/../../../../msp430/lib/mcpu-430x/mmpy-16/msr20/mc20/libc.a(strtol.o) (errno)
/opt/compiler/mspgcc-4.7.3/bin/../lib/gcc/msp430/4.7.3/mcpu-430x/mmpy-16/msr20/mc20/libcrt0.a(_reset_vector__.o)
                              /opt/compiler/mspgcc-4.7.3/bin/../lib/gcc/msp430/4.7.3/mcpu-430x/mmpy-16/msr20/mc20/crt0ivtbl32.o (_reset_vector__)
/opt/compiler/mspgcc-4.7.3/bin/../lib/gcc/msp430/4.7.3/mcpu-430x/mmpy-16/msr20/mc20/libcrt0.a(__watchdog_support.o)
                              /opt/compiler/mspgcc-4.7.3/bin/../lib/gcc/msp430/4.7.3/mcpu-430x/mmpy-16/msr20/mc20/libcrt0.a(_reset_vector__.o) (__watchdog_support)
/opt/compiler/mspgcc-4.7.3/bin/../lib/gcc/msp430/4.7.3/mcpu-430x/mmpy-16/msr20/mc20/libcrt0.a(__init_stack.o)
                              /opt/compiler/mspgcc-4.7.3/bin/../lib/gcc/msp430/4.7.3/mcpu-430x/mmpy-16/msr20/mc20/libcrt0.a(_reset_vector__.o) (__init_stack)
/opt/compiler/mspgcc-4.7.3/bin/../lib/gcc/msp430/4.7.3/mcpu-430x/mmpy-16/msr20/mc20/libcrt0.a(__low_level_init.o)
                              /opt/compiler/mspgcc-4.7.3/bin/../lib/gcc/msp430/4.7.3/mcpu-430x/mmpy-16/msr20/mc20/libcrt0.a(_reset_vector__.o) (__low_level_init)
/opt/compiler/mspgcc-4.7.3/bin/../lib/gcc/msp430/4.7.3/mcpu-430x/mmpy-16/msr20/mc20/libcrt0.a(_copy_data.o)
                              /opt/compiler/mspgcc-4.7.3/bin/../lib/gcc/msp430/4.7.3/mcpu-430x/mmpy-16/msr20/mc20/libcrt0.a(_reset_vector__.o) (__do_copy_data)
/opt/compiler/mspgcc-4.7.3/bin/../lib/gcc/msp430/4.7.3/mcpu-430x/mmpy-16/msr20/mc20/libcrt0.a(_clear_bss.o)
                              /opt/compiler/mspgcc-4.7.3/bin/../lib/gcc/msp430/4.7.3/mcpu-430x/mmpy-16/msr20/mc20/libcrt0.a(_reset_vector__.o) (__do_clear_bss)
/opt/compiler/mspgcc-4.7.3/bin/../lib/gcc/msp430/4.7.3/mcpu-430x/mmpy-16/msr20/mc20/libcrt0.a(__stop_progExec__.o)
                              /opt/compiler/mspgcc-4.7.3/bin/../lib/gcc/msp430/4.7.3/mcpu-430x/mmpy-16/msr20/mc20/libcrt0.a(_reset_vector__.o) (__stop_progExec__)
/opt/compiler/mspgcc-4.7.3/bin/../lib/gcc/msp430/4.7.3/mcpu-430x/mmpy-16/msr20/mc20/libcrt0.a(_endless_loop__.o)
                              /opt/compiler/mspgcc-4.7.3/bin/../lib/gcc/msp430/4.7.3/mcpu-430x/mmpy-16/msr20/mc20/libcrt0.a(_reset_vector__.o) (_endless_loop__)
/opt/compiler/mspgcc-4.7.3/bin/../lib/gcc/msp430/4.7.3/mcpu-430x/mmpy-16/msr20/mc20/libcrt0.a(_unexpected_.o)
                              /opt/compiler/mspgcc-4.7.3/bin/../lib/gcc/msp430/4.7.3/mcpu-430x/mmpy-16/msr20/mc20/crt0ivtbl32.o (_unexpected_)

Allocating common symbols
Common symbol       size              file

energest_total_time
                    0x28              build/z1/contiki-ng-z1.a(energest.o)
uip_ds6_timer_ra    0x8               build/z1/contiki-ng-z1.a(uip-ds6.o)
cc2420_last_rssi    0x1               build/z1/contiki-ng-z1.a(cc2420.o)
accm_int2_cb        0x4               build/z1/contiki-ng-z1.a(adxl345.o)
tsch_timing_us      0x18              build/z1/contiki-ng-z1.a(tsch.o)
uip_ds6_if          0xec              build/z1/contiki-ng-z1.a(uip-ds6.o)
IcmpPackets         0x2               build/z1/contiki-ng-z1.a(uip-icmp6.o)
uip_ds6_netif_addr_list_offset
                    0x1               build/z1/contiki-ng-z1.a(uip-ds6.o)
uip_len             0x2               build/z1/contiki-ng-z1.a(uip6.o)
tsch_last_sync_time
                    0x4               build/z1/contiki-ng-z1.a(tsch-slot-opera)
dequeued_array      0x8               build/z1/contiki-ng-z1.a(tsch-slot-opera)
cc2420_sfd_start_time
                    0x2               build/z1/contiki-ng-z1.a(cc2420.o)
errno               0x2               /opt/compiler/mspgcc-4.7.3/bin/../lib/gcc/msp430/4.7.3/../../../../msp430/lib/mcpu-430x/mmpy-16/msr20/mc20/libc.a(errno.o)
uip_ds6_addr_size   0x1               build/z1/contiki-ng-z1.a(uip-ds6.o)
uip_sappdata        0x2               build/z1/contiki-ng-z1.a(uip6.o)
curr_instance       0x10c             build/z1/contiki-ng-z1.a(rpl-dag.o)
energest_current_mode
                    0x5               build/z1/contiki-ng-z1.a(energest.o)
packetbuf_addrs     0x10              build/z1/contiki-ng-z1.a(packetbuf.o)
tsch_join_priority  0x1               build/z1/contiki-ng-z1.a(tsch.o)
uip_ds6_prefix_list
                    0x5a              build/z1/contiki-ng-z1.a(uip-ds6.o)
process_maxevents   0x1               build/z1/contiki-ng-z1.a(process.o)
n_broadcast         0x2               build/z1/contiki-ng-z1.a(tsch-queue.o)
tsch_timing         0x18              build/z1/contiki-ng-z1.a(tsch.o)
transmit_data1      0x1               build/z1/contiki-ng-z1.a(i2cmaster.o)
sync_count          0x4               build/z1/contiki-ng-z1.a(tsch.o)
uip_lladdr          0x8               build/z1/contiki-ng-z1.a(uip6.o)
rx_byte_ctr         0x1               build/z1/contiki-ng-z1.a(i2cmaster.o)
uip_aligned_buf     0xa0              build/z1/contiki-ng-z1.a(uip6.o)
uip_flags           0x1               build/z1/contiki-ng-z1.a(uip6.o)
rpl_multicast_addr  0x10              build/z1/contiki-ng-z1.a(rpl.o)
send_back_address   0x28              build/z1/contiki-ng-z1.a(tsch.o)
periodic_timer      0x16              build/z1/contiki-ng-z1.a(link-stats.o)
uip_ds6_timer_periodic
                    0xc               build/z1/contiki-ng-z1.a(uip-ds6.o)
parent_change       0x2               build/z1/contiki-ng-z1.a(rpl-neighbor.o)
tx_buf_ptr          0x2               build/z1/contiki-ng-z1.a(i2cmaster.o)
tx_byte_ctr         0x1               build/z1/contiki-ng-z1.a(i2cmaster.o)
cc2420_last_correlation
                    0x1               build/z1/contiki-ng-z1.a(cc2420.o)
linkaddr_node_addr  0x8               build/z1/contiki-ng-z1.a(linkaddr.o)
accm_int1_cb        0x4               build/z1/contiki-ng-z1.a(adxl345.o)
cc2420_authority_level_of_sender
                    0x2               build/z1/contiki-ng-z1.a(cc2420.o)
input_ringbuf       0x4               build/z1/contiki-ng-z1.a(tsch-slot-opera)
uip_udp_conn        0x2               build/z1/contiki-ng-z1.a(uip6.o)
orchestra_parent_linkaddr
                    0x8               build/z1/contiki-ng-z1.a(orchestra.o)
i                   0x2               build/z1/contiki-ng-z1.a(i2cmaster.o)
packetbuf_attrs     0x20              build/z1/contiki-ng-z1.a(packetbuf.o)
msp430_dco_required
                    0x2               build/z1/contiki-ng-z1.a(msp430.o)
dequeued_ringbuf    0x4               build/z1/contiki-ng-z1.a(tsch-slot-opera)
receive_data        0x1               build/z1/contiki-ng-z1.a(i2cmaster.o)
cc2420_sfd_counter  0x1               build/z1/contiki-ng-z1.a(cc2420.o)
send_back_number_links
                    0xa               build/z1/contiki-ng-z1.a(tsch.o)
uip_appdata         0x2               build/z1/contiki-ng-z1.a(uip6.o)
uip_conn            0x2               build/z1/contiki-ng-z1.a(uip6.o)
tcpip_event         0x1               build/z1/contiki-ng-z1.a(tcpip.o)
tsch_hopping_sequence
                    0x8               build/z1/contiki-ng-z1.a(tsch.o)
unicast_per_neighbor_rpl_storing
                    0x16              udp-server.o
last_timesource_neighbor
                    0x2               build/z1/contiki-ng-z1.a(tsch-adaptive-t)
rx_buf              0x2               build/z1/contiki-ng-z1.a(i2cmaster.o)
tsch_current_channel
                    0x1               build/z1/contiki-ng-z1.a(tsch-slot-opera)
node_mac            0x8               build/z1/contiki-ng-z1.a(node-id-z1.o)
n_eb                0x2               build/z1/contiki-ng-z1.a(tsch-queue.o)
input_array         0x118             build/z1/contiki-ng-z1.a(tsch-slot-opera)
max_drift_seen      0x4               build/z1/contiki-ng-z1.a(tsch.o)
transmit_data2      0x1               build/z1/contiki-ng-z1.a(i2cmaster.o)
energest_current_time
                    0xa               build/z1/contiki-ng-z1.a(energest.o)
rx_buf_ptr          0x2               build/z1/contiki-ng-z1.a(i2cmaster.o)
sensors_flags       0x4               build/z1/contiki-ng-z1.a(z1-sensors.o)
serial_line_event_message
                    0x1               build/z1/contiki-ng-z1.a(serial-line.o)
tsch_current_asn    0x6               build/z1/contiki-ng-z1.a(tsch.o)
drops               0x2               build/z1/contiki-ng-z1.a(tsch-queue.o)
cell_list_reserved  0x20              build/z1/contiki-ng-z1.a(tsch.o)
rx_count            0x4               build/z1/contiki-ng-z1.a(tsch.o)
cc2420_sfd_end_time
                    0x2               build/z1/contiki-ng-z1.a(cc2420.o)
sensors_event       0x1               build/z1/contiki-ng-z1.a(sensors.o)
tx_count            0x4               build/z1/contiki-ng-z1.a(tsch.o)
tsch_hopping_sequence_length
                    0x4               build/z1/contiki-ng-z1.a(tsch.o)
min_drift_seen      0x4               build/z1/contiki-ng-z1.a(tsch.o)
uip_slen            0x2               build/z1/contiki-ng-z1.a(uip6.o)
uip_udp_conns       0x34              build/z1/contiki-ng-z1.a(uip6.o)

Discarded input sections

 .data          0x0000000000000000        0x0 /opt/compiler/mspgcc-4.7.3/bin/../lib/gcc/msp430/4.7.3/mcpu-430x/mmpy-16/msr20/mc20/crt0ivtbl32.o
 .bss           0x0000000000000000        0x0 /opt/compiler/mspgcc-4.7.3/bin/../lib/gcc/msp430/4.7.3/mcpu-430x/mmpy-16/msr20/mc20/crt0ivtbl32.o
 .text.crt0     0x0000000000000000        0x0 /opt/compiler/mspgcc-4.7.3/bin/../lib/gcc/msp430/4.7.3/mcpu-430x/mmpy-16/msr20/mc20/crt0ivtbl32.o
 .text          0x0000000000000000        0x0 udp-server.o
 .data          0x0000000000000000        0x0 udp-server.o
 .bss           0x0000000000000000        0x0 udp-server.o
 COMMON         0x0000000000000000       0x16 udp-server.o
 .text          0x0000000000000000        0x0 build/z1/obj/contiki-main.o
 .data          0x0000000000000000        0x0 build/z1/obj/contiki-main.o
 .bss           0x0000000000000000        0x0 build/z1/obj/contiki-main.o
 .text          0x0000000000000000        0x0 build/z1/contiki-ng-z1.a(uart0-putchar.o)
 .data          0x0000000000000000        0x0 build/z1/contiki-ng-z1.a(uart0-putchar.o)
 .bss           0x0000000000000000        0x0 build/z1/contiki-ng-z1.a(uart0-putchar.o)
 .text          0x0000000000000000        0x0 build/z1/contiki-ng-z1.a(platform.o)
 .data          0x0000000000000000        0x0 build/z1/contiki-ng-z1.a(platform.o)
 .bss           0x0000000000000000        0x0 build/z1/contiki-ng-z1.a(platform.o)
 .any.text.uip_log
                0x0000000000000000        0x6 build/z1/contiki-ng-z1.a(platform.o)
 .text          0x0000000000000000        0x0 build/z1/contiki-ng-z1.a(msp430.o)
 .data          0x0000000000000000        0x0 build/z1/contiki-ng-z1.a(msp430.o)
 .bss           0x0000000000000000        0x0 build/z1/contiki-ng-z1.a(msp430.o)
 .any.text.msp430_add_lpm_req
                0x0000000000000000        0xc build/z1/contiki-ng-z1.a(msp430.o)
 .any.text.msp430_remove_lpm_req
                0x0000000000000000        0xc build/z1/contiki-ng-z1.a(msp430.o)
 .text          0x0000000000000000        0x0 build/z1/contiki-ng-z1.a(clock.o)
 .data          0x0000000000000000        0x0 build/z1/contiki-ng-z1.a(clock.o)
 .bss           0x0000000000000000        0x0 build/z1/contiki-ng-z1.a(clock.o)
 .any.text.clock_set
                0x0000000000000000       0x16 build/z1/contiki-ng-z1.a(clock.o)
 .any.text.clock_fine_max
                0x0000000000000000        0x6 build/z1/contiki-ng-z1.a(clock.o)
 .any.text.clock_fine
                0x0000000000000000        0xc build/z1/contiki-ng-z1.a(clock.o)
 .any.text.clock_set_seconds
                0x0000000000000000       0x18 build/z1/contiki-ng-z1.a(clock.o)
 .any.text.clock_counter
                0x0000000000000000        0xe build/z1/contiki-ng-z1.a(clock.o)
 .text          0x0000000000000000        0x0 build/z1/contiki-ng-z1.a(watchdog.o)
 .data          0x0000000000000000        0x0 build/z1/contiki-ng-z1.a(watchdog.o)
 .bss           0x0000000000000000        0x0 build/z1/contiki-ng-z1.a(watchdog.o)
 .text          0x0000000000000000        0x0 build/z1/contiki-ng-z1.a(rtimer-arch.o)
 .data          0x0000000000000000        0x0 build/z1/contiki-ng-z1.a(rtimer-arch.o)
 .bss           0x0000000000000000        0x0 build/z1/contiki-ng-z1.a(rtimer-arch.o)
 .text          0x0000000000000000        0x0 build/z1/contiki-ng-z1.a(serial-shell.o)
 .data          0x0000000000000000        0x0 build/z1/contiki-ng-z1.a(serial-shell.o)
 .bss           0x0000000000000000        0x0 build/z1/contiki-ng-z1.a(serial-shell.o)
 .text          0x0000000000000000        0x0 build/z1/contiki-ng-z1.a(orchestra-rule-)
 .data          0x0000000000000000        0x0 build/z1/contiki-ng-z1.a(orchestra-rule-)
 .bss           0x0000000000000000        0x0 build/z1/contiki-ng-z1.a(orchestra-rule-)
 .text          0x0000000000000000        0x0 build/z1/contiki-ng-z1.a(orchestra-rule-)
 .data          0x0000000000000000        0x0 build/z1/contiki-ng-z1.a(orchestra-rule-)
 .bss           0x0000000000000000        0x0 build/z1/contiki-ng-z1.a(orchestra-rule-)
 .text          0x0000000000000000        0x0 build/z1/contiki-ng-z1.a(orchestra.o)
 .data          0x0000000000000000        0x0 build/z1/contiki-ng-z1.a(orchestra.o)
 .bss           0x0000000000000000        0x0 build/z1/contiki-ng-z1.a(orchestra.o)
 .any.text.orchestra_callback_child_added
                0x0000000000000000       0x22 build/z1/contiki-ng-z1.a(orchestra.o)
 .any.text.orchestra_callback_child_removed
                0x0000000000000000       0x22 build/z1/contiki-ng-z1.a(orchestra.o)
 .text          0x0000000000000000        0x0 build/z1/contiki-ng-z1.a(orchestra-rule-)
 .data          0x0000000000000000        0x0 build/z1/contiki-ng-z1.a(orchestra-rule-)
 .bss           0x0000000000000000        0x0 build/z1/contiki-ng-z1.a(orchestra-rule-)
 .text          0x0000000000000000        0x0 build/z1/contiki-ng-z1.a(autostart.o)
 .data          0x0000000000000000        0x0 build/z1/contiki-ng-z1.a(autostart.o)
 .bss           0x0000000000000000        0x0 build/z1/contiki-ng-z1.a(autostart.o)
 .any.text.autostart_exit
                0x0000000000000000       0x14 build/z1/contiki-ng-z1.a(autostart.o)
 .text          0x0000000000000000        0x0 build/z1/contiki-ng-z1.a(ctimer.o)
 .data          0x0000000000000000        0x0 build/z1/contiki-ng-z1.a(ctimer.o)
 .bss           0x0000000000000000        0x0 build/z1/contiki-ng-z1.a(ctimer.o)
 .any.text.ctimer_restart
                0x0000000000000000       0x2c build/z1/contiki-ng-z1.a(ctimer.o)
 .text          0x0000000000000000        0x0 build/z1/contiki-ng-z1.a(energest.o)
 .data          0x0000000000000000        0x0 build/z1/contiki-ng-z1.a(energest.o)
 .bss           0x0000000000000000        0x0 build/z1/contiki-ng-z1.a(energest.o)
 .any.text.energest_get_total_time
                0x0000000000000000       0x38 build/z1/contiki-ng-z1.a(energest.o)
 .text          0x0000000000000000        0x0 build/z1/contiki-ng-z1.a(etimer.o)
 .data          0x0000000000000000        0x0 build/z1/contiki-ng-z1.a(etimer.o)
 .bss           0x0000000000000000        0x0 build/z1/contiki-ng-z1.a(etimer.o)
 .any.text.etimer_reset_with_new_interval
                0x0000000000000000       0x1e build/z1/contiki-ng-z1.a(etimer.o)
 .any.text.etimer_restart
                0x0000000000000000       0x12 build/z1/contiki-ng-z1.a(etimer.o)
 .any.text.etimer_adjust
                0x0000000000000000       0x1a build/z1/contiki-ng-z1.a(etimer.o)
 .any.text.etimer_expiration_time
                0x0000000000000000       0x14 build/z1/contiki-ng-z1.a(etimer.o)
 .any.text.etimer_start_time
                0x0000000000000000        0x8 build/z1/contiki-ng-z1.a(etimer.o)
 .text          0x0000000000000000        0x0 build/z1/contiki-ng-z1.a(log.o)
 .data          0x0000000000000000        0x0 build/z1/contiki-ng-z1.a(log.o)
 .bss           0x0000000000000000        0x0 build/z1/contiki-ng-z1.a(log.o)
 .rodata.log_6addr_compact_snprint
                0x0000000000000000       0x19 build/z1/contiki-ng-z1.a(log.o)
 .any.text.log_6addr_compact_snprint
                0x0000000000000000       0x5c build/z1/contiki-ng-z1.a(log.o)
 .any.text.log_6addr_compact
                0x0000000000000000       0x2e build/z1/contiki-ng-z1.a(log.o)
 .rodata.log_lladdr_compact
                0x0000000000000000       0x10 build/z1/contiki-ng-z1.a(log.o)
 .any.text.log_lladdr_compact
                0x0000000000000000       0x3e build/z1/contiki-ng-z1.a(log.o)
 .text          0x0000000000000000        0x0 build/z1/contiki-ng-z1.a(rtimer.o)
 .data          0x0000000000000000        0x0 build/z1/contiki-ng-z1.a(rtimer.o)
 .bss           0x0000000000000000        0x0 build/z1/contiki-ng-z1.a(rtimer.o)
 .text          0x0000000000000000        0x0 build/z1/contiki-ng-z1.a(node-id.o)
 .data          0x0000000000000000        0x0 build/z1/contiki-ng-z1.a(node-id.o)
 .bss           0x0000000000000000        0x0 build/z1/contiki-ng-z1.a(node-id.o)
 .text          0x0000000000000000        0x0 build/z1/contiki-ng-z1.a(process.o)
 .data          0x0000000000000000        0x0 build/z1/contiki-ng-z1.a(process.o)
 .bss           0x0000000000000000        0x0 build/z1/contiki-ng-z1.a(process.o)
 .any.text.process_exit
                0x0000000000000000        0xa build/z1/contiki-ng-z1.a(process.o)
 .any.text.process_is_running
                0x0000000000000000        0xe build/z1/contiki-ng-z1.a(process.o)
 .text          0x0000000000000000        0x0 build/z1/contiki-ng-z1.a(timer.o)
 .data          0x0000000000000000        0x0 build/z1/contiki-ng-z1.a(timer.o)
 .bss           0x0000000000000000        0x0 build/z1/contiki-ng-z1.a(timer.o)
 .any.text.timer_restart
                0x0000000000000000       0x14 build/z1/contiki-ng-z1.a(timer.o)
 .any.text.timer_remaining
                0x0000000000000000       0x24 build/z1/contiki-ng-z1.a(timer.o)
 .text          0x0000000000000000        0x0 build/z1/contiki-ng-z1.a(stack-check.o)
 .data          0x0000000000000000        0x0 build/z1/contiki-ng-z1.a(stack-check.o)
 .bss           0x0000000000000000        0x0 build/z1/contiki-ng-z1.a(stack-check.o)
 .any.text.stack_check_get_reserved_size
                0x0000000000000000       0x14 build/z1/contiki-ng-z1.a(stack-check.o)
 .text          0x0000000000000000        0x0 build/z1/contiki-ng-z1.a(list.o)
 .data          0x0000000000000000        0x0 build/z1/contiki-ng-z1.a(list.o)
 .bss           0x0000000000000000        0x0 build/z1/contiki-ng-z1.a(list.o)
 .any.text.list_copy
                0x0000000000000000        0x6 build/z1/contiki-ng-z1.a(list.o)
 .any.text.list_chop
                0x0000000000000000       0x1a build/z1/contiki-ng-z1.a(list.o)
 .any.text.list_pop
                0x0000000000000000        0xe build/z1/contiki-ng-z1.a(list.o)
 .any.text.list_length
                0x0000000000000000       0x10 build/z1/contiki-ng-z1.a(list.o)
 .any.text.list_insert
                0x0000000000000000       0x22 build/z1/contiki-ng-z1.a(list.o)
 .any.text.list_contains
                0x0000000000000000       0x12 build/z1/contiki-ng-z1.a(list.o)
 .text          0x0000000000000000        0x0 build/z1/contiki-ng-z1.a(random.o)
 .data          0x0000000000000000        0x0 build/z1/contiki-ng-z1.a(random.o)
 .bss           0x0000000000000000        0x0 build/z1/contiki-ng-z1.a(random.o)
 .text          0x0000000000000000        0x0 build/z1/contiki-ng-z1.a(serial-line.o)
 .data          0x0000000000000000        0x0 build/z1/contiki-ng-z1.a(serial-line.o)
 .bss           0x0000000000000000        0x0 build/z1/contiki-ng-z1.a(serial-line.o)
 .any.text.process_thread_serial_line_process
                0x0000000000000000       0xa4 build/z1/contiki-ng-z1.a(serial-line.o)
 .any.text.serial_line_input_byte
                0x0000000000000000       0x42 build/z1/contiki-ng-z1.a(serial-line.o)
 .any.text.serial_line_init
                0x0000000000000000       0x1c build/z1/contiki-ng-z1.a(serial-line.o)
 .rodata        0x0000000000000000        0xe build/z1/contiki-ng-z1.a(serial-line.o)
 .data.serial_line_process
                0x0000000000000000        0xc build/z1/contiki-ng-z1.a(serial-line.o)
 .bss.overflow.2076
                0x0000000000000000        0x1 build/z1/contiki-ng-z1.a(serial-line.o)
 .bss.rxbuf     0x0000000000000000        0x6 build/z1/contiki-ng-z1.a(serial-line.o)
 .bss.ptr.2083  0x0000000000000000        0x2 build/z1/contiki-ng-z1.a(serial-line.o)
 .bss.buf.2082  0x0000000000000000       0x80 build/z1/contiki-ng-z1.a(serial-line.o)
 .bss.rxbuf_data
                0x0000000000000000       0x80 build/z1/contiki-ng-z1.a(serial-line.o)
 .text          0x0000000000000000        0x0 build/z1/contiki-ng-z1.a(queuebuf.o)
 .data          0x0000000000000000        0x0 build/z1/contiki-ng-z1.a(queuebuf.o)
 .bss           0x0000000000000000        0x0 build/z1/contiki-ng-z1.a(queuebuf.o)
 .any.text.queuebuf_numfree
                0x0000000000000000        0xa build/z1/contiki-ng-z1.a(queuebuf.o)
 .any.text.queuebuf_update_attr_from_packetbuf
                0x0000000000000000       0x12 build/z1/contiki-ng-z1.a(queuebuf.o)
 .any.text.queuebuf_update_from_packetbuf
                0x0000000000000000       0x22 build/z1/contiki-ng-z1.a(queuebuf.o)
 .any.text.queuebuf_addr
                0x0000000000000000        0xe build/z1/contiki-ng-z1.a(queuebuf.o)
 .any.text.queuebuf_debug_print
                0x0000000000000000        0x2 build/z1/contiki-ng-z1.a(queuebuf.o)
 .text          0x0000000000000000        0x0 build/z1/contiki-ng-z1.a(packetbuf.o)
 .data          0x0000000000000000        0x0 build/z1/contiki-ng-z1.a(packetbuf.o)
 .bss           0x0000000000000000        0x0 build/z1/contiki-ng-z1.a(packetbuf.o)
 .text          0x0000000000000000        0x0 build/z1/contiki-ng-z1.a(netstack.o)
 .data          0x0000000000000000        0x0 build/z1/contiki-ng-z1.a(netstack.o)
 .bss           0x0000000000000000        0x0 build/z1/contiki-ng-z1.a(netstack.o)
 .any.text.netstack_ip_packet_processor_add
                0x0000000000000000       0x10 build/z1/contiki-ng-z1.a(netstack.o)
 .any.text.uip_ds6_ip_packet_processor_rm
                0x0000000000000000        0xc build/z1/contiki-ng-z1.a(netstack.o)
 .text          0x0000000000000000        0x0 build/z1/contiki-ng-z1.a(linkaddr.o)
 .data          0x0000000000000000        0x0 build/z1/contiki-ng-z1.a(linkaddr.o)
 .bss           0x0000000000000000        0x0 build/z1/contiki-ng-z1.a(linkaddr.o)
 .text          0x0000000000000000        0x0 build/z1/contiki-ng-z1.a(tsch.o)
 .data          0x0000000000000000        0x0 build/z1/contiki-ng-z1.a(tsch.o)
 .bss           0x0000000000000000        0x0 build/z1/contiki-ng-z1.a(tsch.o)
 .any.text.add_to_cell_list_reserved
                0x0000000000000000       0x30 build/z1/contiki-ng-z1.a(tsch.o)
 .any.text.find_in_cell_list_reserved
                0x0000000000000000       0x1e build/z1/contiki-ng-z1.a(tsch.o)
 .any.text.delete_from_cell_list_reserved
                0x0000000000000000       0x2e build/z1/contiki-ng-z1.a(tsch.o)
 .any.text.convert_rate_to_slots
                0x0000000000000000       0xc8 build/z1/contiki-ng-z1.a(tsch.o)
 .any.text.find_free_place_in_send_back
                0x0000000000000000       0x18 build/z1/contiki-ng-z1.a(tsch.o)
 .any.text.find_first_place_in_send_back
                0x0000000000000000       0x1c build/z1/contiki-ng-z1.a(tsch.o)
 .any.text.find_in_send_back_by_address
                0x0000000000000000       0x38 build/z1/contiki-ng-z1.a(tsch.o)
 .bss.need_send_back
                0x0000000000000000        0x2 build/z1/contiki-ng-z1.a(tsch.o)
 .data.check_ask_uplink
                0x0000000000000000        0x2 build/z1/contiki-ng-z1.a(tsch.o)
 .bss.adv_timeslots
                0x0000000000000000        0x2 build/z1/contiki-ng-z1.a(tsch.o)
 .bss.two_hop_channel
                0x0000000000000000        0x1 build/z1/contiki-ng-z1.a(tsch.o)
 .bss.default_channel
                0x0000000000000000        0x1 build/z1/contiki-ng-z1.a(tsch.o)
 .text          0x0000000000000000        0x0 build/z1/contiki-ng-z1.a(tsch-queue.o)
 .data          0x0000000000000000        0x0 build/z1/contiki-ng-z1.a(tsch-queue.o)
 .bss           0x0000000000000000        0x0 build/z1/contiki-ng-z1.a(tsch-queue.o)
 .any.text.tsch_queue_check_nbr
                0x0000000000000000       0x38 build/z1/contiki-ng-z1.a(tsch-queue.o)
 .any.text.tsch_queue_global_packet_count
                0x0000000000000000       0x10 build/z1/contiki-ng-z1.a(tsch-queue.o)
 .any.text.tsch_queue_get_packet_for_dest_addr
                0x0000000000000000       0x22 build/z1/contiki-ng-z1.a(tsch-queue.o)
 .any.text.tsch_queue_backoff_expired
                0x0000000000000000        0xe build/z1/contiki-ng-z1.a(tsch-queue.o)
 .any.text.tsch_queue_backoff_reset
                0x0000000000000000        0xa build/z1/contiki-ng-z1.a(tsch-queue.o)
 .text          0x0000000000000000        0x0 build/z1/contiki-ng-z1.a(tsch-schedule.o)
 .data          0x0000000000000000        0x0 build/z1/contiki-ng-z1.a(tsch-schedule.o)
 .bss           0x0000000000000000        0x0 build/z1/contiki-ng-z1.a(tsch-schedule.o)
 .any.text.tsch_schedule_get_link_by_handle
                0x0000000000000000       0x44 build/z1/contiki-ng-z1.a(tsch-schedule.o)
 .rodata.tsch_schedule_remove_slotframe
                0x0000000000000000       0x19 build/z1/contiki-ng-z1.a(tsch-schedule.o)
 .any.text.tsch_schedule_remove_slotframe
                0x0000000000000000       0x4e build/z1/contiki-ng-z1.a(tsch-schedule.o)
 .any.text.tsch_schedule_remove_all_slotframes
                0x0000000000000000       0x1e build/z1/contiki-ng-z1.a(tsch-schedule.o)
 .any.text.dtsf_find_last_uplinks
                0x0000000000000000       0x5a build/z1/contiki-ng-z1.a(tsch-schedule.o)
 .any.text.dtsf_find_free_adv_link_slot
                0x0000000000000000       0x60 build/z1/contiki-ng-z1.a(tsch-schedule.o)
 .any.text.dtsf_check_consequent_RX_timeslot
                0x0000000000000000       0xa2 build/z1/contiki-ng-z1.a(tsch-schedule.o)
 .rodata.dtsf_find_free_adv_slot
                0x0000000000000000       0x21 build/z1/contiki-ng-z1.a(tsch-schedule.o)
 .any.text.dtsf_find_free_adv_slot
                0x0000000000000000       0x3c build/z1/contiki-ng-z1.a(tsch-schedule.o)
 .rodata.tsch_schedule_delete_link
                0x0000000000000000       0x95 build/z1/contiki-ng-z1.a(tsch-schedule.o)
 .any.text.tsch_schedule_delete_link
                0x0000000000000000      0x14e build/z1/contiki-ng-z1.a(tsch-schedule.o)
 .any.text.dtsf_check_RX_timeslot
                0x0000000000000000       0x20 build/z1/contiki-ng-z1.a(tsch-schedule.o)
 .any.text.dtsf_find_free_uplink_slot
                0x0000000000000000       0xc4 build/z1/contiki-ng-z1.a(tsch-schedule.o)
 .rodata.tsch_schedule_create_minimal
                0x0000000000000000       0x1f build/z1/contiki-ng-z1.a(tsch-schedule.o)
 .any.text.tsch_schedule_create_minimal
                0x0000000000000000       0x54 build/z1/contiki-ng-z1.a(tsch-schedule.o)
 .rodata.tsch_schedule_print
                0x0000000000000000       0xa8 build/z1/contiki-ng-z1.a(tsch-schedule.o)
 .any.text.tsch_schedule_print
                0x0000000000000000       0x86 build/z1/contiki-ng-z1.a(tsch-schedule.o)
 .text          0x0000000000000000        0x0 build/z1/contiki-ng-z1.a(tsch-slot-opera)
 .data          0x0000000000000000        0x0 build/z1/contiki-ng-z1.a(tsch-slot-opera)
 .bss           0x0000000000000000        0x0 build/z1/contiki-ng-z1.a(tsch-slot-opera)
 .text          0x0000000000000000        0x0 build/z1/contiki-ng-z1.a(tsch-packet.o)
 .data          0x0000000000000000        0x0 build/z1/contiki-ng-z1.a(tsch-packet.o)
 .bss           0x0000000000000000        0x0 build/z1/contiki-ng-z1.a(tsch-packet.o)
 .any.text.tsch_packet_eackbuf_set_attr
                0x0000000000000000        0xa build/z1/contiki-ng-z1.a(tsch-packet.o)
 .text          0x0000000000000000        0x0 build/z1/contiki-ng-z1.a(tsch-security.o)
 .data          0x0000000000000000        0x0 build/z1/contiki-ng-z1.a(tsch-security.o)
 .bss           0x0000000000000000        0x0 build/z1/contiki-ng-z1.a(tsch-security.o)
 .any.text.tsch_security_mic_len
                0x0000000000000000       0x22 build/z1/contiki-ng-z1.a(tsch-security.o)
 .any.text.tsch_security_secure_frame
                0x0000000000000000      0x11c build/z1/contiki-ng-z1.a(tsch-security.o)
 .any.text.tsch_security_parse_frame
                0x0000000000000000      0x13e build/z1/contiki-ng-z1.a(tsch-security.o)
 .data.keys     0x0000000000000000       0x20 build/z1/contiki-ng-z1.a(tsch-security.o)
 .rodata.CSWTCH.10
                0x0000000000000000        0x3 build/z1/contiki-ng-z1.a(tsch-security.o)
 .rodata.CSWTCH.11
                0x0000000000000000        0x3 build/z1/contiki-ng-z1.a(tsch-security.o)
 .text          0x0000000000000000        0x0 build/z1/contiki-ng-z1.a(tsch-rpl.o)
 .data          0x0000000000000000        0x0 build/z1/contiki-ng-z1.a(tsch-rpl.o)
 .bss           0x0000000000000000        0x0 build/z1/contiki-ng-z1.a(tsch-rpl.o)
 .text          0x0000000000000000        0x0 build/z1/contiki-ng-z1.a(tsch-adaptive-t)
 .data          0x0000000000000000        0x0 build/z1/contiki-ng-z1.a(tsch-adaptive-t)
 .bss           0x0000000000000000        0x0 build/z1/contiki-ng-z1.a(tsch-adaptive-t)
 .text          0x0000000000000000        0x0 build/z1/contiki-ng-z1.a(uip-ds6.o)
 .data          0x0000000000000000        0x0 build/z1/contiki-ng-z1.a(uip-ds6.o)
 .bss           0x0000000000000000        0x0 build/z1/contiki-ng-z1.a(uip-ds6.o)
 .any.text.uip_ds6_set_default_prefix
                0x0000000000000000       0x10 build/z1/contiki-ng-z1.a(uip-ds6.o)
 .any.text.uip_ds6_prefix_rm
                0x0000000000000000        0xa build/z1/contiki-ng-z1.a(uip-ds6.o)
 .any.text.uip_ds6_prefix_lookup
                0x0000000000000000       0x28 build/z1/contiki-ng-z1.a(uip-ds6.o)
 .any.text.uip_ds6_get_global
                0x0000000000000000       0x3e build/z1/contiki-ng-z1.a(uip-ds6.o)
 .any.text.uip_ds6_aaddr_add
                0x0000000000000000       0x46 build/z1/contiki-ng-z1.a(uip-ds6.o)
 .any.text.uip_ds6_aaddr_rm
                0x0000000000000000        0xa build/z1/contiki-ng-z1.a(uip-ds6.o)
 .any.text.uip_ds6_aaddr_lookup
                0x0000000000000000       0x28 build/z1/contiki-ng-z1.a(uip-ds6.o)
 .bss.locaaddr  0x0000000000000000        0x2 build/z1/contiki-ng-z1.a(uip-ds6.o)
 .text          0x0000000000000000        0x0 build/z1/contiki-ng-z1.a(uiplib.o)
 .data          0x0000000000000000        0x0 build/z1/contiki-ng-z1.a(uiplib.o)
 .bss           0x0000000000000000        0x0 build/z1/contiki-ng-z1.a(uiplib.o)
 .any.text.uiplib_ip4addrconv
                0x0000000000000000       0x7c build/z1/contiki-ng-z1.a(uiplib.o)
 .rodata.uiplib_ipaddr_print
                0x0000000000000000        0x3 build/z1/contiki-ng-z1.a(uiplib.o)
 .any.text.uiplib_ipaddr_print
                0x0000000000000000       0x32 build/z1/contiki-ng-z1.a(uiplib.o)
 .text          0x0000000000000000        0x0 build/z1/contiki-ng-z1.a(uip-ds6-route.o)
 .data          0x0000000000000000        0x0 build/z1/contiki-ng-z1.a(uip-ds6-route.o)
 .bss           0x0000000000000000        0x0 build/z1/contiki-ng-z1.a(uip-ds6-route.o)
 .any.text.uip_ds6_route_head
                0x0000000000000000        0x4 build/z1/contiki-ng-z1.a(uip-ds6-route.o)
 .any.text.uip_ds6_route_next
                0x0000000000000000        0x4 build/z1/contiki-ng-z1.a(uip-ds6-route.o)
 .any.text.uip_ds6_route_is_nexthop
                0x0000000000000000        0x4 build/z1/contiki-ng-z1.a(uip-ds6-route.o)
 .any.text.uip_ds6_route_num_routes
                0x0000000000000000        0x4 build/z1/contiki-ng-z1.a(uip-ds6-route.o)
 .any.text.uip_ds6_route_add
                0x0000000000000000        0x4 build/z1/contiki-ng-z1.a(uip-ds6-route.o)
 .any.text.uip_ds6_route_rm_by_nexthop
                0x0000000000000000        0x2 build/z1/contiki-ng-z1.a(uip-ds6-route.o)
 .any.text.uip_ds6_defrt_head
                0x0000000000000000        0xa build/z1/contiki-ng-z1.a(uip-ds6-route.o)
 .text          0x0000000000000000        0x0 build/z1/contiki-ng-z1.a(tcpip.o)
 .data          0x0000000000000000        0x0 build/z1/contiki-ng-z1.a(tcpip.o)
 .bss           0x0000000000000000        0x0 build/z1/contiki-ng-z1.a(tcpip.o)
 .any.text.udp_attach
                0x0000000000000000        0xc build/z1/contiki-ng-z1.a(tcpip.o)
 .any.text.udp_broadcast_new
                0x0000000000000000       0x46 build/z1/contiki-ng-z1.a(tcpip.o)
 .any.text.tcpip_poll_udp
                0x0000000000000000        0xe build/z1/contiki-ng-z1.a(tcpip.o)
 .text          0x0000000000000000        0x0 build/z1/contiki-ng-z1.a(uip6.o)
 .data          0x0000000000000000        0x0 build/z1/contiki-ng-z1.a(uip6.o)
 .bss           0x0000000000000000        0x0 build/z1/contiki-ng-z1.a(uip6.o)
 .any.text.uip_chksum
                0x0000000000000000       0x18 build/z1/contiki-ng-z1.a(uip6.o)
 .any.text.uip_htons
                0x0000000000000000        0xc build/z1/contiki-ng-z1.a(uip6.o)
 .any.text.uip_send
                0x0000000000000000       0x62 build/z1/contiki-ng-z1.a(uip6.o)
 .text          0x0000000000000000        0x0 build/z1/contiki-ng-z1.a(uip-ds6-nbr.o)
 .data          0x0000000000000000        0x0 build/z1/contiki-ng-z1.a(uip-ds6-nbr.o)
 .bss           0x0000000000000000        0x0 build/z1/contiki-ng-z1.a(uip-ds6-nbr.o)
 .any.text.uip_ds6_nbr_num
                0x0000000000000000       0x24 build/z1/contiki-ng-z1.a(uip-ds6-nbr.o)
 .text          0x0000000000000000        0x0 build/z1/contiki-ng-z1.a(uip-nd6.o)
 .data          0x0000000000000000        0x0 build/z1/contiki-ng-z1.a(uip-nd6.o)
 .bss           0x0000000000000000        0x0 build/z1/contiki-ng-z1.a(uip-nd6.o)
 .text          0x0000000000000000        0x0 build/z1/contiki-ng-z1.a(simple-udp.o)
 .data          0x0000000000000000        0x0 build/z1/contiki-ng-z1.a(simple-udp.o)
 .bss           0x0000000000000000        0x0 build/z1/contiki-ng-z1.a(simple-udp.o)
 .any.text.simple_udp_send
                0x0000000000000000       0x2a build/z1/contiki-ng-z1.a(simple-udp.o)
 .any.text.simple_udp_sendto
                0x0000000000000000       0x28 build/z1/contiki-ng-z1.a(simple-udp.o)
 .any.text.simple_udp_sendto_port
                0x0000000000000000       0x26 build/z1/contiki-ng-z1.a(simple-udp.o)
 .text          0x0000000000000000        0x0 build/z1/contiki-ng-z1.a(sicslowpan.o)
 .data          0x0000000000000000        0x0 build/z1/contiki-ng-z1.a(sicslowpan.o)
 .bss           0x0000000000000000        0x0 build/z1/contiki-ng-z1.a(sicslowpan.o)
 .any.text.netstack_sniffer_remove
                0x0000000000000000        0x6 build/z1/contiki-ng-z1.a(sicslowpan.o)
 .any.text.sicslowpan_get_last_rssi
                0x0000000000000000        0x6 build/z1/contiki-ng-z1.a(sicslowpan.o)
 .text          0x0000000000000000        0x0 build/z1/contiki-ng-z1.a(rpl-neighbor.o)
 .data          0x0000000000000000        0x0 build/z1/contiki-ng-z1.a(rpl-neighbor.o)
 .bss           0x0000000000000000        0x0 build/z1/contiki-ng-z1.a(rpl-neighbor.o)
 .any.text.rpl_neighbor_print_list
                0x0000000000000000       0x3a build/z1/contiki-ng-z1.a(rpl-neighbor.o)
 .any.text.rpl_neighbor_is_reachable
                0x0000000000000000       0x30 build/z1/contiki-ng-z1.a(rpl-neighbor.o)
 .text          0x0000000000000000        0x0 build/z1/contiki-ng-z1.a(rpl-dag.o)
 .data          0x0000000000000000        0x0 build/z1/contiki-ng-z1.a(rpl-dag.o)
 .bss           0x0000000000000000        0x0 build/z1/contiki-ng-z1.a(rpl-dag.o)
 .rodata.rpl_dag_state_to_str
                0x0000000000000000        0x8 build/z1/contiki-ng-z1.a(rpl-dag.o)
 .any.text.rpl_dag_state_to_str
                0x0000000000000000       0x12 build/z1/contiki-ng-z1.a(rpl-dag.o)
 .any.text.rpl_get_default_instance
                0x0000000000000000       0x10 build/z1/contiki-ng-z1.a(rpl-dag.o)
 .any.text.rpl_get_any_dag
                0x0000000000000000       0x10 build/z1/contiki-ng-z1.a(rpl-dag.o)
 .rodata        0x0000000000000000       0x27 build/z1/contiki-ng-z1.a(rpl-dag.o)
 .rodata.CSWTCH.18
                0x0000000000000000        0x8 build/z1/contiki-ng-z1.a(rpl-dag.o)
 .text          0x0000000000000000        0x0 build/z1/contiki-ng-z1.a(rpl-timers.o)
 .data          0x0000000000000000        0x0 build/z1/contiki-ng-z1.a(rpl-timers.o)
 .bss           0x0000000000000000        0x0 build/z1/contiki-ng-z1.a(rpl-timers.o)
 .text          0x0000000000000000        0x0 build/z1/contiki-ng-z1.a(rpl.o)
 .data          0x0000000000000000        0x0 build/z1/contiki-ng-z1.a(rpl.o)
 .bss           0x0000000000000000        0x0 build/z1/contiki-ng-z1.a(rpl.o)
 .any.text.rpl_set_prefix
                0x0000000000000000       0x2e build/z1/contiki-ng-z1.a(rpl.o)
 .any.text.rpl_set_leaf_only
                0x0000000000000000        0x6 build/z1/contiki-ng-z1.a(rpl.o)
 .text          0x0000000000000000        0x0 build/z1/contiki-ng-z1.a(rpl-mrhof.o)
 .data          0x0000000000000000        0x0 build/z1/contiki-ng-z1.a(rpl-mrhof.o)
 .bss           0x0000000000000000        0x0 build/z1/contiki-ng-z1.a(rpl-mrhof.o)
 .text          0x0000000000000000        0x0 build/z1/contiki-ng-z1.a(rpl-icmp6.o)
 .data          0x0000000000000000        0x0 build/z1/contiki-ng-z1.a(rpl-icmp6.o)
 .bss           0x0000000000000000        0x0 build/z1/contiki-ng-z1.a(rpl-icmp6.o)
 .text          0x0000000000000000        0x0 build/z1/contiki-ng-z1.a(rpl-dag-root.o)
 .data          0x0000000000000000        0x0 build/z1/contiki-ng-z1.a(rpl-dag-root.o)
 .bss           0x0000000000000000        0x0 build/z1/contiki-ng-z1.a(rpl-dag-root.o)
 .any.text.rpl_dag_root_print_links
                0x0000000000000000       0x3e build/z1/contiki-ng-z1.a(rpl-dag-root.o)
 .text          0x0000000000000000        0x0 build/z1/contiki-ng-z1.a(contiki-z1-plat)
 .data          0x0000000000000000        0x0 build/z1/contiki-ng-z1.a(contiki-z1-plat)
 .bss           0x0000000000000000        0x0 build/z1/contiki-ng-z1.a(contiki-z1-plat)
 .text          0x0000000000000000        0x0 build/z1/contiki-ng-z1.a(leds.o)
 .data          0x0000000000000000        0x0 build/z1/contiki-ng-z1.a(leds.o)
 .bss           0x0000000000000000        0x0 build/z1/contiki-ng-z1.a(leds.o)
 .any.text.leds_get
                0x0000000000000000        0x6 build/z1/contiki-ng-z1.a(leds.o)
 .any.text.leds_set
                0x0000000000000000        0x6 build/z1/contiki-ng-z1.a(leds.o)
 .any.text.leds_toggle
                0x0000000000000000       0x12 build/z1/contiki-ng-z1.a(leds.o)
 .any.text.leds_blink
                0x0000000000000000       0x22 build/z1/contiki-ng-z1.a(leds.o)
 .text          0x0000000000000000        0x0 build/z1/contiki-ng-z1.a(xmem.o)
 .data          0x0000000000000000        0x0 build/z1/contiki-ng-z1.a(xmem.o)
 .bss           0x0000000000000000        0x0 build/z1/contiki-ng-z1.a(xmem.o)
 .any.text.write_enable
                0x0000000000000000       0x26 build/z1/contiki-ng-z1.a(xmem.o)
 .any.text.xmem_pwrite
                0x0000000000000000       0xdc build/z1/contiki-ng-z1.a(xmem.o)
 .rodata.xmem_erase
                0x0000000000000000       0x2c build/z1/contiki-ng-z1.a(xmem.o)
 .any.text.xmem_erase
                0x0000000000000000       0xaa build/z1/contiki-ng-z1.a(xmem.o)
 .text          0x0000000000000000        0x0 build/z1/contiki-ng-z1.a(spi-legacy.o)
 .data          0x0000000000000000        0x0 build/z1/contiki-ng-z1.a(spi-legacy.o)
 .bss           0x0000000000000000        0x0 build/z1/contiki-ng-z1.a(spi-legacy.o)
 .bss.spi_busy  0x0000000000000000        0x1 build/z1/contiki-ng-z1.a(spi-legacy.o)
 .text          0x0000000000000000        0x0 build/z1/contiki-ng-z1.a(cc2420.o)
 .data          0x0000000000000000        0x0 build/z1/contiki-ng-z1.a(cc2420.o)
 .bss           0x0000000000000000        0x0 build/z1/contiki-ng-z1.a(cc2420.o)
 .any.text.set_key
                0x0000000000000000       0x18 build/z1/contiki-ng-z1.a(cc2420.o)
 .any.text.encrypt
                0x0000000000000000       0x82 build/z1/contiki-ng-z1.a(cc2420.o)
 .any.text.cc2420_get_channel
                0x0000000000000000        0x6 build/z1/contiki-ng-z1.a(cc2420.o)
 .rodata.cc2420_aes_128_driver
                0x0000000000000000        0x8 build/z1/contiki-ng-z1.a(cc2420.o)
 .text          0x0000000000000000        0x0 build/z1/contiki-ng-z1.a(cc2420-arch.o)
 .data          0x0000000000000000        0x0 build/z1/contiki-ng-z1.a(cc2420-arch.o)
 .bss           0x0000000000000000        0x0 build/z1/contiki-ng-z1.a(cc2420-arch.o)
 .text          0x0000000000000000        0x0 build/z1/contiki-ng-z1.a(cc2420-arch-sfd)
 .data          0x0000000000000000        0x0 build/z1/contiki-ng-z1.a(cc2420-arch-sfd)
 .bss           0x0000000000000000        0x0 build/z1/contiki-ng-z1.a(cc2420-arch-sfd)
 .text          0x0000000000000000        0x0 build/z1/contiki-ng-z1.a(node-id-z1.o)
 .data          0x0000000000000000        0x0 build/z1/contiki-ng-z1.a(node-id-z1.o)
 .bss           0x0000000000000000        0x0 build/z1/contiki-ng-z1.a(node-id-z1.o)
 .any.text.node_id_z1_burn
                0x0000000000000000       0x4e build/z1/contiki-ng-z1.a(node-id-z1.o)
 .text          0x0000000000000000        0x0 build/z1/contiki-ng-z1.a(sensors.o)
 .data          0x0000000000000000        0x0 build/z1/contiki-ng-z1.a(sensors.o)
 .bss           0x0000000000000000        0x0 build/z1/contiki-ng-z1.a(sensors.o)
 .any.text.sensors_first
                0x0000000000000000        0x6 build/z1/contiki-ng-z1.a(sensors.o)
 .any.text.sensors_next
                0x0000000000000000       0x24 build/z1/contiki-ng-z1.a(sensors.o)
 .any.text.sensors_find
                0x0000000000000000       0x40 build/z1/contiki-ng-z1.a(sensors.o)
 .text          0x0000000000000000        0x0 build/z1/contiki-ng-z1.a(uart0.o)
 .data          0x0000000000000000        0x0 build/z1/contiki-ng-z1.a(uart0.o)
 .bss           0x0000000000000000        0x0 build/z1/contiki-ng-z1.a(uart0.o)
 .any.text.uart0_set_input
                0x0000000000000000        0x6 build/z1/contiki-ng-z1.a(uart0.o)
 .text          0x0000000000000000        0x0 build/z1/contiki-ng-z1.a(z1-sensors.o)
 .data          0x0000000000000000        0x0 build/z1/contiki-ng-z1.a(z1-sensors.o)
 .bss           0x0000000000000000        0x0 build/z1/contiki-ng-z1.a(z1-sensors.o)
 .text          0x0000000000000000        0x0 build/z1/contiki-ng-z1.a(adxl345.o)
 .data          0x0000000000000000        0x0 build/z1/contiki-ng-z1.a(adxl345.o)
 .bss           0x0000000000000000        0x0 build/z1/contiki-ng-z1.a(adxl345.o)
 .any.text.accm_read_axis
                0x0000000000000000       0x10 build/z1/contiki-ng-z1.a(adxl345.o)
 .any.text.accm_set_grange
                0x0000000000000000       0x30 build/z1/contiki-ng-z1.a(adxl345.o)
 .any.text.accm_set_irq
                0x0000000000000000       0x38 build/z1/contiki-ng-z1.a(adxl345.o)
 .text          0x0000000000000000        0x0 build/z1/contiki-ng-z1.a(tmp102.o)
 .data          0x0000000000000000        0x0 build/z1/contiki-ng-z1.a(tmp102.o)
 .bss           0x0000000000000000        0x0 build/z1/contiki-ng-z1.a(tmp102.o)
 .any.text.tmp102_write_reg
                0x0000000000000000       0x38 build/z1/contiki-ng-z1.a(tmp102.o)
 .any.text.tmp102_read_temp_raw
                0x0000000000000000        0x8 build/z1/contiki-ng-z1.a(tmp102.o)
 .any.text.tmp102_read_temp_simple
                0x0000000000000000        0xe build/z1/contiki-ng-z1.a(tmp102.o)
 .text          0x0000000000000000        0x0 build/z1/contiki-ng-z1.a(leds-arch.o)
 .data          0x0000000000000000        0x0 build/z1/contiki-ng-z1.a(leds-arch.o)
 .bss           0x0000000000000000        0x0 build/z1/contiki-ng-z1.a(leds-arch.o)
 .text          0x0000000000000000        0x0 build/z1/contiki-ng-z1.a(int-master.o)
 .data          0x0000000000000000        0x0 build/z1/contiki-ng-z1.a(int-master.o)
 .bss           0x0000000000000000        0x0 build/z1/contiki-ng-z1.a(int-master.o)
 .any.text.int_master_enable
                0x0000000000000000        0x4 build/z1/contiki-ng-z1.a(int-master.o)
 .any.text.int_master_is_enabled
                0x0000000000000000        0x8 build/z1/contiki-ng-z1.a(int-master.o)
 .text          0x0000000000000000        0x0 build/z1/contiki-ng-z1.a(shell.o)
 .data          0x0000000000000000        0x0 build/z1/contiki-ng-z1.a(shell.o)
 .bss           0x0000000000000000        0x0 build/z1/contiki-ng-z1.a(shell.o)
 .text          0x0000000000000000        0x0 build/z1/contiki-ng-z1.a(shell-commands.)
 .data          0x0000000000000000        0x0 build/z1/contiki-ng-z1.a(shell-commands.)
 .bss           0x0000000000000000        0x0 build/z1/contiki-ng-z1.a(shell-commands.)
 .any.text.shell_command_set_register
                0x0000000000000000        0xc build/z1/contiki-ng-z1.a(shell-commands.)
 .any.text.shell_command_set_deregister
                0x0000000000000000       0x26 build/z1/contiki-ng-z1.a(shell-commands.)
 .text          0x0000000000000000        0x0 build/z1/contiki-ng-z1.a(stimer.o)
 .data          0x0000000000000000        0x0 build/z1/contiki-ng-z1.a(stimer.o)
 .bss           0x0000000000000000        0x0 build/z1/contiki-ng-z1.a(stimer.o)
 .any.text.stimer_restart
                0x0000000000000000       0x14 build/z1/contiki-ng-z1.a(stimer.o)
 .any.text.stimer_reset
                0x0000000000000000       0x1c build/z1/contiki-ng-z1.a(stimer.o)
 .any.text.stimer_remaining
                0x0000000000000000       0x24 build/z1/contiki-ng-z1.a(stimer.o)
 .any.text.stimer_elapsed
                0x0000000000000000       0x12 build/z1/contiki-ng-z1.a(stimer.o)
 .text          0x0000000000000000        0x0 build/z1/contiki-ng-z1.a(ringbuf.o)
 .data          0x0000000000000000        0x0 build/z1/contiki-ng-z1.a(ringbuf.o)
 .bss           0x0000000000000000        0x0 build/z1/contiki-ng-z1.a(ringbuf.o)
 .stab          0x0000000000000000      0x450 build/z1/contiki-ng-z1.a(ringbuf.o)
                                        0x7a4 (size before relaxing)
 .any.text.ringbuf_init
                0x0000000000000000       0x14 build/z1/contiki-ng-z1.a(ringbuf.o)
 .any.text.ringbuf_put
                0x0000000000000000       0x38 build/z1/contiki-ng-z1.a(ringbuf.o)
 .any.text.ringbuf_get
                0x0000000000000000       0x2e build/z1/contiki-ng-z1.a(ringbuf.o)
 .any.text.ringbuf_size
                0x0000000000000000        0x8 build/z1/contiki-ng-z1.a(ringbuf.o)
 .any.text.ringbuf_elements
                0x0000000000000000       0x12 build/z1/contiki-ng-z1.a(ringbuf.o)
 .comment       0x0000000000000000       0x31 build/z1/contiki-ng-z1.a(ringbuf.o)
 .gnu.attributes
                0x0000000000000000       0x11 build/z1/contiki-ng-z1.a(ringbuf.o)
 .text          0x0000000000000000        0x0 build/z1/contiki-ng-z1.a(ccm-star.o)
 .data          0x0000000000000000        0x0 build/z1/contiki-ng-z1.a(ccm-star.o)
 .bss           0x0000000000000000        0x0 build/z1/contiki-ng-z1.a(ccm-star.o)
 .stab          0x0000000000000000      0x7b0 build/z1/contiki-ng-z1.a(ccm-star.o)
                                        0xccc (size before relaxing)
 .any.text.set_key
                0x0000000000000000        0x6 build/z1/contiki-ng-z1.a(ccm-star.o)
 .any.text.ctr_step
                0x0000000000000000       0x5e build/z1/contiki-ng-z1.a(ccm-star.o)
 .any.text.aead
                0x0000000000000000      0x1e6 build/z1/contiki-ng-z1.a(ccm-star.o)
 .rodata.ccm_star_driver
                0x0000000000000000        0x8 build/z1/contiki-ng-z1.a(ccm-star.o)
 .comment       0x0000000000000000       0x31 build/z1/contiki-ng-z1.a(ccm-star.o)
 .gnu.attributes
                0x0000000000000000       0x11 build/z1/contiki-ng-z1.a(ccm-star.o)
 .text          0x0000000000000000        0x0 build/z1/contiki-ng-z1.a(ringbufindex.o)
 .data          0x0000000000000000        0x0 build/z1/contiki-ng-z1.a(ringbufindex.o)
 .bss           0x0000000000000000        0x0 build/z1/contiki-ng-z1.a(ringbufindex.o)
 .any.text.ringbufindex_size
                0x0000000000000000        0x6 build/z1/contiki-ng-z1.a(ringbufindex.o)
 .any.text.ringbufindex_full
                0x0000000000000000       0x1a build/z1/contiki-ng-z1.a(ringbufindex.o)
 .text          0x0000000000000000        0x0 build/z1/contiki-ng-z1.a(memb.o)
 .data          0x0000000000000000        0x0 build/z1/contiki-ng-z1.a(memb.o)
 .bss           0x0000000000000000        0x0 build/z1/contiki-ng-z1.a(memb.o)
 .any.text.memb_numfree
                0x0000000000000000       0x26 build/z1/contiki-ng-z1.a(memb.o)
 .text          0x0000000000000000        0x0 build/z1/contiki-ng-z1.a(nbr-table.o)
 .data          0x0000000000000000        0x0 build/z1/contiki-ng-z1.a(nbr-table.o)
 .bss           0x0000000000000000        0x0 build/z1/contiki-ng-z1.a(nbr-table.o)
 .text          0x0000000000000000        0x0 build/z1/contiki-ng-z1.a(link-stats.o)
 .data          0x0000000000000000        0x0 build/z1/contiki-ng-z1.a(link-stats.o)
 .bss           0x0000000000000000        0x0 build/z1/contiki-ng-z1.a(link-stats.o)
 .any.text.link_stats_get_lladdr
                0x0000000000000000        0xc build/z1/contiki-ng-z1.a(link-stats.o)
 .text          0x0000000000000000        0x0 build/z1/contiki-ng-z1.a(mac-sequence.o)
 .data          0x0000000000000000        0x0 build/z1/contiki-ng-z1.a(mac-sequence.o)
 .bss           0x0000000000000000        0x0 build/z1/contiki-ng-z1.a(mac-sequence.o)
 .text          0x0000000000000000        0x0 build/z1/contiki-ng-z1.a(mac.o)
 .data          0x0000000000000000        0x0 build/z1/contiki-ng-z1.a(mac.o)
 .bss           0x0000000000000000        0x0 build/z1/contiki-ng-z1.a(mac.o)
 .text          0x0000000000000000        0x0 build/z1/contiki-ng-z1.a(frame802154e-ie)
 .data          0x0000000000000000        0x0 build/z1/contiki-ng-z1.a(frame802154e-ie)
 .bss           0x0000000000000000        0x0 build/z1/contiki-ng-z1.a(frame802154e-ie)
 .any.text.frame80215e_create_ie_header_list_termination_2
                0x0000000000000000       0x1e build/z1/contiki-ng-z1.a(frame802154e-ie)
 .any.text.frame80215e_create_ie_payload_list_termination
                0x0000000000000000       0x1c build/z1/contiki-ng-z1.a(frame802154e-ie)
 .text          0x0000000000000000        0x0 build/z1/contiki-ng-z1.a(framer-802154.o)
 .data          0x0000000000000000        0x0 build/z1/contiki-ng-z1.a(framer-802154.o)
 .bss           0x0000000000000000        0x0 build/z1/contiki-ng-z1.a(framer-802154.o)
 .text          0x0000000000000000        0x0 build/z1/contiki-ng-z1.a(frame802154.o)
 .data          0x0000000000000000        0x0 build/z1/contiki-ng-z1.a(frame802154.o)
 .bss           0x0000000000000000        0x0 build/z1/contiki-ng-z1.a(frame802154.o)
 .text          0x0000000000000000        0x0 build/z1/contiki-ng-z1.a(cc2420-tsch-15m)
 .data          0x0000000000000000        0x0 build/z1/contiki-ng-z1.a(cc2420-tsch-15m)
 .bss           0x0000000000000000        0x0 build/z1/contiki-ng-z1.a(cc2420-tsch-15m)
 .text          0x0000000000000000        0x0 build/z1/contiki-ng-z1.a(uipbuf.o)
 .data          0x0000000000000000        0x0 build/z1/contiki-ng-z1.a(uipbuf.o)
 .bss           0x0000000000000000        0x0 build/z1/contiki-ng-z1.a(uipbuf.o)
 .any.text.uipbuf_set_attr
                0x0000000000000000       0x16 build/z1/contiki-ng-z1.a(uipbuf.o)
 .any.text.uipbuf_set_default_attr
                0x0000000000000000       0x16 build/z1/contiki-ng-z1.a(uipbuf.o)
 .any.text.uipbuf_set_attr_flag
                0x0000000000000000        0x6 build/z1/contiki-ng-z1.a(uipbuf.o)
 .any.text.uipbuf_clr_attr_flag
                0x0000000000000000        0x6 build/z1/contiki-ng-z1.a(uipbuf.o)
 .any.text.uipbuf_is_attr_flag
                0x0000000000000000       0x12 build/z1/contiki-ng-z1.a(uipbuf.o)
 .text          0x0000000000000000        0x0 build/z1/contiki-ng-z1.a(uip-icmp6.o)
 .data          0x0000000000000000        0x0 build/z1/contiki-ng-z1.a(uip-icmp6.o)
 .bss           0x0000000000000000        0x0 build/z1/contiki-ng-z1.a(uip-icmp6.o)
 .any.text.uip_icmp6_echo_reply_callback_rm
                0x0000000000000000        0xc build/z1/contiki-ng-z1.a(uip-icmp6.o)
 .text          0x0000000000000000        0x0 build/z1/contiki-ng-z1.a(uip-sr.o)
 .data          0x0000000000000000        0x0 build/z1/contiki-ng-z1.a(uip-sr.o)
 .bss           0x0000000000000000        0x0 build/z1/contiki-ng-z1.a(uip-sr.o)
 .text          0x0000000000000000        0x0 build/z1/contiki-ng-z1.a(uip-udp-packet.)
 .data          0x0000000000000000        0x0 build/z1/contiki-ng-z1.a(uip-udp-packet.)
 .bss           0x0000000000000000        0x0 build/z1/contiki-ng-z1.a(uip-udp-packet.)
 .stab          0x0000000000000000      0x42c build/z1/contiki-ng-z1.a(uip-udp-packet.)
                                        0xc30 (size before relaxing)
 .any.text.uip_udp_packet_send
                0x0000000000000000       0x2a build/z1/contiki-ng-z1.a(uip-udp-packet.)
 .any.text.uip_udp_packet_sendto
                0x0000000000000000       0x56 build/z1/contiki-ng-z1.a(uip-udp-packet.)
 .comment       0x0000000000000000       0x31 build/z1/contiki-ng-z1.a(uip-udp-packet.)
 .gnu.attributes
                0x0000000000000000       0x11 build/z1/contiki-ng-z1.a(uip-udp-packet.)
 .text          0x0000000000000000        0x0 build/z1/contiki-ng-z1.a(rpl-nbr-policy.)
 .data          0x0000000000000000        0x0 build/z1/contiki-ng-z1.a(rpl-nbr-policy.)
 .bss           0x0000000000000000        0x0 build/z1/contiki-ng-z1.a(rpl-nbr-policy.)
 .text          0x0000000000000000        0x0 build/z1/contiki-ng-z1.a(rpl-ext-header.)
 .data          0x0000000000000000        0x0 build/z1/contiki-ng-z1.a(rpl-ext-header.)
 .bss           0x0000000000000000        0x0 build/z1/contiki-ng-z1.a(rpl-ext-header.)
 .text          0x0000000000000000        0x0 build/z1/contiki-ng-z1.a(i2cmaster.o)
 .data          0x0000000000000000        0x0 build/z1/contiki-ng-z1.a(i2cmaster.o)
 .bss           0x0000000000000000        0x0 build/z1/contiki-ng-z1.a(i2cmaster.o)
 .any.text.i2c_setrate
                0x0000000000000000        0x6 build/z1/contiki-ng-z1.a(i2cmaster.o)
 .any.text.i2c_disable
                0x0000000000000000       0x1a build/z1/contiki-ng-z1.a(i2cmaster.o)
 .text          0x0000000000000000        0x0 build/z1/contiki-ng-z1.a(button-sensor.o)
 .data          0x0000000000000000        0x0 build/z1/contiki-ng-z1.a(button-sensor.o)
 .bss           0x0000000000000000        0x0 build/z1/contiki-ng-z1.a(button-sensor.o)
 .text          0x0000000000000000        0x0 /opt/compiler/mspgcc-4.7.3/bin/../lib/gcc/msp430/4.7.3/mcpu-430x/mmpy-16/msr20/mc20/libgcc.a(_mulsi3.o)
 .data          0x0000000000000000        0x0 /opt/compiler/mspgcc-4.7.3/bin/../lib/gcc/msp430/4.7.3/mcpu-430x/mmpy-16/msr20/mc20/libgcc.a(_mulsi3.o)
 .bss           0x0000000000000000        0x0 /opt/compiler/mspgcc-4.7.3/bin/../lib/gcc/msp430/4.7.3/mcpu-430x/mmpy-16/msr20/mc20/libgcc.a(_mulsi3.o)
 .text          0x0000000000000000        0x0 /opt/compiler/mspgcc-4.7.3/bin/../lib/gcc/msp430/4.7.3/mcpu-430x/mmpy-16/msr20/mc20/libgcc.a(_mulsidi3.o)
 .data          0x0000000000000000        0x0 /opt/compiler/mspgcc-4.7.3/bin/../lib/gcc/msp430/4.7.3/mcpu-430x/mmpy-16/msr20/mc20/libgcc.a(_mulsidi3.o)
 .bss           0x0000000000000000        0x0 /opt/compiler/mspgcc-4.7.3/bin/../lib/gcc/msp430/4.7.3/mcpu-430x/mmpy-16/msr20/mc20/libgcc.a(_mulsidi3.o)
 .text          0x0000000000000000        0x0 /opt/compiler/mspgcc-4.7.3/bin/../lib/gcc/msp430/4.7.3/mcpu-430x/mmpy-16/msr20/mc20/libgcc.a(_muldi3.o)
 .data          0x0000000000000000        0x0 /opt/compiler/mspgcc-4.7.3/bin/../lib/gcc/msp430/4.7.3/mcpu-430x/mmpy-16/msr20/mc20/libgcc.a(_muldi3.o)
 .bss           0x0000000000000000        0x0 /opt/compiler/mspgcc-4.7.3/bin/../lib/gcc/msp430/4.7.3/mcpu-430x/mmpy-16/msr20/mc20/libgcc.a(_muldi3.o)
 .text          0x0000000000000000        0x0 /opt/compiler/mspgcc-4.7.3/bin/../lib/gcc/msp430/4.7.3/mcpu-430x/mmpy-16/msr20/mc20/libgcc.a(_udivmod16.o)
 .data          0x0000000000000000        0x0 /opt/compiler/mspgcc-4.7.3/bin/../lib/gcc/msp430/4.7.3/mcpu-430x/mmpy-16/msr20/mc20/libgcc.a(_udivmod16.o)
 .bss           0x0000000000000000        0x0 /opt/compiler/mspgcc-4.7.3/bin/../lib/gcc/msp430/4.7.3/mcpu-430x/mmpy-16/msr20/mc20/libgcc.a(_udivmod16.o)
 .text          0x0000000000000000        0x0 /opt/compiler/mspgcc-4.7.3/bin/../lib/gcc/msp430/4.7.3/mcpu-430x/mmpy-16/msr20/mc20/libgcc.a(_divmod16.o)
 .data          0x0000000000000000        0x0 /opt/compiler/mspgcc-4.7.3/bin/../lib/gcc/msp430/4.7.3/mcpu-430x/mmpy-16/msr20/mc20/libgcc.a(_divmod16.o)
 .bss           0x0000000000000000        0x0 /opt/compiler/mspgcc-4.7.3/bin/../lib/gcc/msp430/4.7.3/mcpu-430x/mmpy-16/msr20/mc20/libgcc.a(_divmod16.o)
 .text          0x0000000000000000        0x0 /opt/compiler/mspgcc-4.7.3/bin/../lib/gcc/msp430/4.7.3/mcpu-430x/mmpy-16/msr20/mc20/libgcc.a(_udivmod32.o)
 .data          0x0000000000000000        0x0 /opt/compiler/mspgcc-4.7.3/bin/../lib/gcc/msp430/4.7.3/mcpu-430x/mmpy-16/msr20/mc20/libgcc.a(_udivmod32.o)
 .bss           0x0000000000000000        0x0 /opt/compiler/mspgcc-4.7.3/bin/../lib/gcc/msp430/4.7.3/mcpu-430x/mmpy-16/msr20/mc20/libgcc.a(_udivmod32.o)
 .text          0x0000000000000000        0x0 /opt/compiler/mspgcc-4.7.3/bin/../lib/gcc/msp430/4.7.3/mcpu-430x/mmpy-16/msr20/mc20/libgcc.a(_divmod32.o)
 .data          0x0000000000000000        0x0 /opt/compiler/mspgcc-4.7.3/bin/../lib/gcc/msp430/4.7.3/mcpu-430x/mmpy-16/msr20/mc20/libgcc.a(_divmod32.o)
 .bss           0x0000000000000000        0x0 /opt/compiler/mspgcc-4.7.3/bin/../lib/gcc/msp430/4.7.3/mcpu-430x/mmpy-16/msr20/mc20/libgcc.a(_divmod32.o)
 .text          0x0000000000000000        0x0 /opt/compiler/mspgcc-4.7.3/bin/../lib/gcc/msp430/4.7.3/mcpu-430x/mmpy-16/msr20/mc20/libgcc.a(_divmod64.o)
 .data          0x0000000000000000        0x0 /opt/compiler/mspgcc-4.7.3/bin/../lib/gcc/msp430/4.7.3/mcpu-430x/mmpy-16/msr20/mc20/libgcc.a(_divmod64.o)
 .bss           0x0000000000000000        0x0 /opt/compiler/mspgcc-4.7.3/bin/../lib/gcc/msp430/4.7.3/mcpu-430x/mmpy-16/msr20/mc20/libgcc.a(_divmod64.o)
 .text          0x0000000000000000        0x0 /opt/compiler/mspgcc-4.7.3/bin/../lib/gcc/msp430/4.7.3/mcpu-430x/mmpy-16/msr20/mc20/libgcc.a(_addsub_sf.o)
 .data          0x0000000000000000        0x0 /opt/compiler/mspgcc-4.7.3/bin/../lib/gcc/msp430/4.7.3/mcpu-430x/mmpy-16/msr20/mc20/libgcc.a(_addsub_sf.o)
 .bss           0x0000000000000000        0x0 /opt/compiler/mspgcc-4.7.3/bin/../lib/gcc/msp430/4.7.3/mcpu-430x/mmpy-16/msr20/mc20/libgcc.a(_addsub_sf.o)
 .any.text      0x0000000000000000      0x306 /opt/compiler/mspgcc-4.7.3/bin/../lib/gcc/msp430/4.7.3/mcpu-430x/mmpy-16/msr20/mc20/libgcc.a(_addsub_sf.o)
 .debug_frame   0x0000000000000000       0x68 /opt/compiler/mspgcc-4.7.3/bin/../lib/gcc/msp430/4.7.3/mcpu-430x/mmpy-16/msr20/mc20/libgcc.a(_addsub_sf.o)
 .debug_info    0x0000000000000000      0x531 /opt/compiler/mspgcc-4.7.3/bin/../lib/gcc/msp430/4.7.3/mcpu-430x/mmpy-16/msr20/mc20/libgcc.a(_addsub_sf.o)
 .debug_abbrev  0x0000000000000000      0x204 /opt/compiler/mspgcc-4.7.3/bin/../lib/gcc/msp430/4.7.3/mcpu-430x/mmpy-16/msr20/mc20/libgcc.a(_addsub_sf.o)
 .debug_loc     0x0000000000000000      0x5ed /opt/compiler/mspgcc-4.7.3/bin/../lib/gcc/msp430/4.7.3/mcpu-430x/mmpy-16/msr20/mc20/libgcc.a(_addsub_sf.o)
 .debug_aranges
                0x0000000000000000       0x30 /opt/compiler/mspgcc-4.7.3/bin/../lib/gcc/msp430/4.7.3/mcpu-430x/mmpy-16/msr20/mc20/libgcc.a(_addsub_sf.o)
 .debug_ranges  0x0000000000000000       0x48 /opt/compiler/mspgcc-4.7.3/bin/../lib/gcc/msp430/4.7.3/mcpu-430x/mmpy-16/msr20/mc20/libgcc.a(_addsub_sf.o)
 .debug_line    0x0000000000000000      0x106 /opt/compiler/mspgcc-4.7.3/bin/../lib/gcc/msp430/4.7.3/mcpu-430x/mmpy-16/msr20/mc20/libgcc.a(_addsub_sf.o)
 .debug_str     0x0000000000000000      0x286 /opt/compiler/mspgcc-4.7.3/bin/../lib/gcc/msp430/4.7.3/mcpu-430x/mmpy-16/msr20/mc20/libgcc.a(_addsub_sf.o)
 .comment       0x0000000000000000       0x31 /opt/compiler/mspgcc-4.7.3/bin/../lib/gcc/msp430/4.7.3/mcpu-430x/mmpy-16/msr20/mc20/libgcc.a(_addsub_sf.o)
 .gnu.attributes
                0x0000000000000000       0x11 /opt/compiler/mspgcc-4.7.3/bin/../lib/gcc/msp430/4.7.3/mcpu-430x/mmpy-16/msr20/mc20/libgcc.a(_addsub_sf.o)
 .text          0x0000000000000000        0x0 /opt/compiler/mspgcc-4.7.3/bin/../lib/gcc/msp430/4.7.3/mcpu-430x/mmpy-16/msr20/mc20/libgcc.a(_mul_sf.o)
 .data          0x0000000000000000        0x0 /opt/compiler/mspgcc-4.7.3/bin/../lib/gcc/msp430/4.7.3/mcpu-430x/mmpy-16/msr20/mc20/libgcc.a(_mul_sf.o)
 .bss           0x0000000000000000        0x0 /opt/compiler/mspgcc-4.7.3/bin/../lib/gcc/msp430/4.7.3/mcpu-430x/mmpy-16/msr20/mc20/libgcc.a(_mul_sf.o)
 .any.text      0x0000000000000000      0x1fe /opt/compiler/mspgcc-4.7.3/bin/../lib/gcc/msp430/4.7.3/mcpu-430x/mmpy-16/msr20/mc20/libgcc.a(_mul_sf.o)
 .debug_frame   0x0000000000000000       0x40 /opt/compiler/mspgcc-4.7.3/bin/../lib/gcc/msp430/4.7.3/mcpu-430x/mmpy-16/msr20/mc20/libgcc.a(_mul_sf.o)
 .debug_info    0x0000000000000000      0x470 /opt/compiler/mspgcc-4.7.3/bin/../lib/gcc/msp430/4.7.3/mcpu-430x/mmpy-16/msr20/mc20/libgcc.a(_mul_sf.o)
 .debug_abbrev  0x0000000000000000      0x247 /opt/compiler/mspgcc-4.7.3/bin/../lib/gcc/msp430/4.7.3/mcpu-430x/mmpy-16/msr20/mc20/libgcc.a(_mul_sf.o)
 .debug_loc     0x0000000000000000      0x289 /opt/compiler/mspgcc-4.7.3/bin/../lib/gcc/msp430/4.7.3/mcpu-430x/mmpy-16/msr20/mc20/libgcc.a(_mul_sf.o)
 .debug_aranges
                0x0000000000000000       0x20 /opt/compiler/mspgcc-4.7.3/bin/../lib/gcc/msp430/4.7.3/mcpu-430x/mmpy-16/msr20/mc20/libgcc.a(_mul_sf.o)
 .debug_ranges  0x0000000000000000       0x68 /opt/compiler/mspgcc-4.7.3/bin/../lib/gcc/msp430/4.7.3/mcpu-430x/mmpy-16/msr20/mc20/libgcc.a(_mul_sf.o)
 .debug_line    0x0000000000000000       0xf2 /opt/compiler/mspgcc-4.7.3/bin/../lib/gcc/msp430/4.7.3/mcpu-430x/mmpy-16/msr20/mc20/libgcc.a(_mul_sf.o)
 .debug_str     0x0000000000000000      0x23f /opt/compiler/mspgcc-4.7.3/bin/../lib/gcc/msp430/4.7.3/mcpu-430x/mmpy-16/msr20/mc20/libgcc.a(_mul_sf.o)
 .comment       0x0000000000000000       0x31 /opt/compiler/mspgcc-4.7.3/bin/../lib/gcc/msp430/4.7.3/mcpu-430x/mmpy-16/msr20/mc20/libgcc.a(_mul_sf.o)
 .gnu.attributes
                0x0000000000000000       0x11 /opt/compiler/mspgcc-4.7.3/bin/../lib/gcc/msp430/4.7.3/mcpu-430x/mmpy-16/msr20/mc20/libgcc.a(_mul_sf.o)
 .text          0x0000000000000000        0x0 /opt/compiler/mspgcc-4.7.3/bin/../lib/gcc/msp430/4.7.3/mcpu-430x/mmpy-16/msr20/mc20/libgcc.a(_eq_sf.o)
 .data          0x0000000000000000        0x0 /opt/compiler/mspgcc-4.7.3/bin/../lib/gcc/msp430/4.7.3/mcpu-430x/mmpy-16/msr20/mc20/libgcc.a(_eq_sf.o)
 .bss           0x0000000000000000        0x0 /opt/compiler/mspgcc-4.7.3/bin/../lib/gcc/msp430/4.7.3/mcpu-430x/mmpy-16/msr20/mc20/libgcc.a(_eq_sf.o)
 .text          0x0000000000000000        0x0 /opt/compiler/mspgcc-4.7.3/bin/../lib/gcc/msp430/4.7.3/mcpu-430x/mmpy-16/msr20/mc20/libgcc.a(_ne_sf.o)
 .data          0x0000000000000000        0x0 /opt/compiler/mspgcc-4.7.3/bin/../lib/gcc/msp430/4.7.3/mcpu-430x/mmpy-16/msr20/mc20/libgcc.a(_ne_sf.o)
 .bss           0x0000000000000000        0x0 /opt/compiler/mspgcc-4.7.3/bin/../lib/gcc/msp430/4.7.3/mcpu-430x/mmpy-16/msr20/mc20/libgcc.a(_ne_sf.o)
 .any.text      0x0000000000000000       0x4e /opt/compiler/mspgcc-4.7.3/bin/../lib/gcc/msp430/4.7.3/mcpu-430x/mmpy-16/msr20/mc20/libgcc.a(_ne_sf.o)
 .debug_frame   0x0000000000000000       0x28 /opt/compiler/mspgcc-4.7.3/bin/../lib/gcc/msp430/4.7.3/mcpu-430x/mmpy-16/msr20/mc20/libgcc.a(_ne_sf.o)
 .debug_info    0x0000000000000000      0x30c /opt/compiler/mspgcc-4.7.3/bin/../lib/gcc/msp430/4.7.3/mcpu-430x/mmpy-16/msr20/mc20/libgcc.a(_ne_sf.o)
 .debug_abbrev  0x0000000000000000      0x1a7 /opt/compiler/mspgcc-4.7.3/bin/../lib/gcc/msp430/4.7.3/mcpu-430x/mmpy-16/msr20/mc20/libgcc.a(_ne_sf.o)
 .debug_loc     0x0000000000000000       0x7c /opt/compiler/mspgcc-4.7.3/bin/../lib/gcc/msp430/4.7.3/mcpu-430x/mmpy-16/msr20/mc20/libgcc.a(_ne_sf.o)
 .debug_aranges
                0x0000000000000000       0x20 /opt/compiler/mspgcc-4.7.3/bin/../lib/gcc/msp430/4.7.3/mcpu-430x/mmpy-16/msr20/mc20/libgcc.a(_ne_sf.o)
 .debug_ranges  0x0000000000000000       0x10 /opt/compiler/mspgcc-4.7.3/bin/../lib/gcc/msp430/4.7.3/mcpu-430x/mmpy-16/msr20/mc20/libgcc.a(_ne_sf.o)
 .debug_line    0x0000000000000000       0x7a /opt/compiler/mspgcc-4.7.3/bin/../lib/gcc/msp430/4.7.3/mcpu-430x/mmpy-16/msr20/mc20/libgcc.a(_ne_sf.o)
 .debug_str     0x0000000000000000      0x215 /opt/compiler/mspgcc-4.7.3/bin/../lib/gcc/msp430/4.7.3/mcpu-430x/mmpy-16/msr20/mc20/libgcc.a(_ne_sf.o)
 .comment       0x0000000000000000       0x31 /opt/compiler/mspgcc-4.7.3/bin/../lib/gcc/msp430/4.7.3/mcpu-430x/mmpy-16/msr20/mc20/libgcc.a(_ne_sf.o)
 .gnu.attributes
                0x0000000000000000       0x11 /opt/compiler/mspgcc-4.7.3/bin/../lib/gcc/msp430/4.7.3/mcpu-430x/mmpy-16/msr20/mc20/libgcc.a(_ne_sf.o)
 .text          0x0000000000000000        0x0 /opt/compiler/mspgcc-4.7.3/bin/../lib/gcc/msp430/4.7.3/mcpu-430x/mmpy-16/msr20/mc20/libgcc.a(_gt_sf.o)
 .data          0x0000000000000000        0x0 /opt/compiler/mspgcc-4.7.3/bin/../lib/gcc/msp430/4.7.3/mcpu-430x/mmpy-16/msr20/mc20/libgcc.a(_gt_sf.o)
 .bss           0x0000000000000000        0x0 /opt/compiler/mspgcc-4.7.3/bin/../lib/gcc/msp430/4.7.3/mcpu-430x/mmpy-16/msr20/mc20/libgcc.a(_gt_sf.o)
 .text          0x0000000000000000        0x0 /opt/compiler/mspgcc-4.7.3/bin/../lib/gcc/msp430/4.7.3/mcpu-430x/mmpy-16/msr20/mc20/libgcc.a(_lt_sf.o)
 .data          0x0000000000000000        0x0 /opt/compiler/mspgcc-4.7.3/bin/../lib/gcc/msp430/4.7.3/mcpu-430x/mmpy-16/msr20/mc20/libgcc.a(_lt_sf.o)
 .bss           0x0000000000000000        0x0 /opt/compiler/mspgcc-4.7.3/bin/../lib/gcc/msp430/4.7.3/mcpu-430x/mmpy-16/msr20/mc20/libgcc.a(_lt_sf.o)
 .any.text      0x0000000000000000       0x4e /opt/compiler/mspgcc-4.7.3/bin/../lib/gcc/msp430/4.7.3/mcpu-430x/mmpy-16/msr20/mc20/libgcc.a(_lt_sf.o)
 .debug_frame   0x0000000000000000       0x28 /opt/compiler/mspgcc-4.7.3/bin/../lib/gcc/msp430/4.7.3/mcpu-430x/mmpy-16/msr20/mc20/libgcc.a(_lt_sf.o)
 .debug_info    0x0000000000000000      0x30c /opt/compiler/mspgcc-4.7.3/bin/../lib/gcc/msp430/4.7.3/mcpu-430x/mmpy-16/msr20/mc20/libgcc.a(_lt_sf.o)
 .debug_abbrev  0x0000000000000000      0x1a7 /opt/compiler/mspgcc-4.7.3/bin/../lib/gcc/msp430/4.7.3/mcpu-430x/mmpy-16/msr20/mc20/libgcc.a(_lt_sf.o)
 .debug_loc     0x0000000000000000       0x7c /opt/compiler/mspgcc-4.7.3/bin/../lib/gcc/msp430/4.7.3/mcpu-430x/mmpy-16/msr20/mc20/libgcc.a(_lt_sf.o)
 .debug_aranges
                0x0000000000000000       0x20 /opt/compiler/mspgcc-4.7.3/bin/../lib/gcc/msp430/4.7.3/mcpu-430x/mmpy-16/msr20/mc20/libgcc.a(_lt_sf.o)
 .debug_ranges  0x0000000000000000       0x10 /opt/compiler/mspgcc-4.7.3/bin/../lib/gcc/msp430/4.7.3/mcpu-430x/mmpy-16/msr20/mc20/libgcc.a(_lt_sf.o)
 .debug_line    0x0000000000000000       0x7a /opt/compiler/mspgcc-4.7.3/bin/../lib/gcc/msp430/4.7.3/mcpu-430x/mmpy-16/msr20/mc20/libgcc.a(_lt_sf.o)
 .debug_str     0x0000000000000000      0x215 /opt/compiler/mspgcc-4.7.3/bin/../lib/gcc/msp430/4.7.3/mcpu-430x/mmpy-16/msr20/mc20/libgcc.a(_lt_sf.o)
 .comment       0x0000000000000000       0x31 /opt/compiler/mspgcc-4.7.3/bin/../lib/gcc/msp430/4.7.3/mcpu-430x/mmpy-16/msr20/mc20/libgcc.a(_lt_sf.o)
 .gnu.attributes
                0x0000000000000000       0x11 /opt/compiler/mspgcc-4.7.3/bin/../lib/gcc/msp430/4.7.3/mcpu-430x/mmpy-16/msr20/mc20/libgcc.a(_lt_sf.o)
 .text          0x0000000000000000        0x0 /opt/compiler/mspgcc-4.7.3/bin/../lib/gcc/msp430/4.7.3/mcpu-430x/mmpy-16/msr20/mc20/libgcc.a(_le_sf.o)
 .data          0x0000000000000000        0x0 /opt/compiler/mspgcc-4.7.3/bin/../lib/gcc/msp430/4.7.3/mcpu-430x/mmpy-16/msr20/mc20/libgcc.a(_le_sf.o)
 .bss           0x0000000000000000        0x0 /opt/compiler/mspgcc-4.7.3/bin/../lib/gcc/msp430/4.7.3/mcpu-430x/mmpy-16/msr20/mc20/libgcc.a(_le_sf.o)
 .any.text      0x0000000000000000       0x4e /opt/compiler/mspgcc-4.7.3/bin/../lib/gcc/msp430/4.7.3/mcpu-430x/mmpy-16/msr20/mc20/libgcc.a(_le_sf.o)
 .debug_frame   0x0000000000000000       0x28 /opt/compiler/mspgcc-4.7.3/bin/../lib/gcc/msp430/4.7.3/mcpu-430x/mmpy-16/msr20/mc20/libgcc.a(_le_sf.o)
 .debug_info    0x0000000000000000      0x30c /opt/compiler/mspgcc-4.7.3/bin/../lib/gcc/msp430/4.7.3/mcpu-430x/mmpy-16/msr20/mc20/libgcc.a(_le_sf.o)
 .debug_abbrev  0x0000000000000000      0x1a7 /opt/compiler/mspgcc-4.7.3/bin/../lib/gcc/msp430/4.7.3/mcpu-430x/mmpy-16/msr20/mc20/libgcc.a(_le_sf.o)
 .debug_loc     0x0000000000000000       0x7c /opt/compiler/mspgcc-4.7.3/bin/../lib/gcc/msp430/4.7.3/mcpu-430x/mmpy-16/msr20/mc20/libgcc.a(_le_sf.o)
 .debug_aranges
                0x0000000000000000       0x20 /opt/compiler/mspgcc-4.7.3/bin/../lib/gcc/msp430/4.7.3/mcpu-430x/mmpy-16/msr20/mc20/libgcc.a(_le_sf.o)
 .debug_ranges  0x0000000000000000       0x10 /opt/compiler/mspgcc-4.7.3/bin/../lib/gcc/msp430/4.7.3/mcpu-430x/mmpy-16/msr20/mc20/libgcc.a(_le_sf.o)
 .debug_line    0x0000000000000000       0x7a /opt/compiler/mspgcc-4.7.3/bin/../lib/gcc/msp430/4.7.3/mcpu-430x/mmpy-16/msr20/mc20/libgcc.a(_le_sf.o)
 .debug_str     0x0000000000000000      0x215 /opt/compiler/mspgcc-4.7.3/bin/../lib/gcc/msp430/4.7.3/mcpu-430x/mmpy-16/msr20/mc20/libgcc.a(_le_sf.o)
 .comment       0x0000000000000000       0x31 /opt/compiler/mspgcc-4.7.3/bin/../lib/gcc/msp430/4.7.3/mcpu-430x/mmpy-16/msr20/mc20/libgcc.a(_le_sf.o)
 .gnu.attributes
                0x0000000000000000       0x11 /opt/compiler/mspgcc-4.7.3/bin/../lib/gcc/msp430/4.7.3/mcpu-430x/mmpy-16/msr20/mc20/libgcc.a(_le_sf.o)
 .text          0x0000000000000000        0x0 /opt/compiler/mspgcc-4.7.3/bin/../lib/gcc/msp430/4.7.3/mcpu-430x/mmpy-16/msr20/mc20/libgcc.a(_si_to_sf.o)
 .data          0x0000000000000000        0x0 /opt/compiler/mspgcc-4.7.3/bin/../lib/gcc/msp430/4.7.3/mcpu-430x/mmpy-16/msr20/mc20/libgcc.a(_si_to_sf.o)
 .bss           0x0000000000000000        0x0 /opt/compiler/mspgcc-4.7.3/bin/../lib/gcc/msp430/4.7.3/mcpu-430x/mmpy-16/msr20/mc20/libgcc.a(_si_to_sf.o)
 .text          0x0000000000000000        0x0 /opt/compiler/mspgcc-4.7.3/bin/../lib/gcc/msp430/4.7.3/mcpu-430x/mmpy-16/msr20/mc20/libgcc.a(_sf_to_si.o)
 .data          0x0000000000000000        0x0 /opt/compiler/mspgcc-4.7.3/bin/../lib/gcc/msp430/4.7.3/mcpu-430x/mmpy-16/msr20/mc20/libgcc.a(_sf_to_si.o)
 .bss           0x0000000000000000        0x0 /opt/compiler/mspgcc-4.7.3/bin/../lib/gcc/msp430/4.7.3/mcpu-430x/mmpy-16/msr20/mc20/libgcc.a(_sf_to_si.o)
 .any.text      0x0000000000000000       0x8c /opt/compiler/mspgcc-4.7.3/bin/../lib/gcc/msp430/4.7.3/mcpu-430x/mmpy-16/msr20/mc20/libgcc.a(_sf_to_si.o)
 .debug_frame   0x0000000000000000       0x28 /opt/compiler/mspgcc-4.7.3/bin/../lib/gcc/msp430/4.7.3/mcpu-430x/mmpy-16/msr20/mc20/libgcc.a(_sf_to_si.o)
 .debug_info    0x0000000000000000      0x2d9 /opt/compiler/mspgcc-4.7.3/bin/../lib/gcc/msp430/4.7.3/mcpu-430x/mmpy-16/msr20/mc20/libgcc.a(_sf_to_si.o)
 .debug_abbrev  0x0000000000000000      0x196 /opt/compiler/mspgcc-4.7.3/bin/../lib/gcc/msp430/4.7.3/mcpu-430x/mmpy-16/msr20/mc20/libgcc.a(_sf_to_si.o)
 .debug_loc     0x0000000000000000       0x88 /opt/compiler/mspgcc-4.7.3/bin/../lib/gcc/msp430/4.7.3/mcpu-430x/mmpy-16/msr20/mc20/libgcc.a(_sf_to_si.o)
 .debug_aranges
                0x0000000000000000       0x20 /opt/compiler/mspgcc-4.7.3/bin/../lib/gcc/msp430/4.7.3/mcpu-430x/mmpy-16/msr20/mc20/libgcc.a(_sf_to_si.o)
 .debug_ranges  0x0000000000000000       0x10 /opt/compiler/mspgcc-4.7.3/bin/../lib/gcc/msp430/4.7.3/mcpu-430x/mmpy-16/msr20/mc20/libgcc.a(_sf_to_si.o)
 .debug_line    0x0000000000000000       0x8e /opt/compiler/mspgcc-4.7.3/bin/../lib/gcc/msp430/4.7.3/mcpu-430x/mmpy-16/msr20/mc20/libgcc.a(_sf_to_si.o)
 .debug_str     0x0000000000000000      0x20d /opt/compiler/mspgcc-4.7.3/bin/../lib/gcc/msp430/4.7.3/mcpu-430x/mmpy-16/msr20/mc20/libgcc.a(_sf_to_si.o)
 .comment       0x0000000000000000       0x31 /opt/compiler/mspgcc-4.7.3/bin/../lib/gcc/msp430/4.7.3/mcpu-430x/mmpy-16/msr20/mc20/libgcc.a(_sf_to_si.o)
 .gnu.attributes
                0x0000000000000000       0x11 /opt/compiler/mspgcc-4.7.3/bin/../lib/gcc/msp430/4.7.3/mcpu-430x/mmpy-16/msr20/mc20/libgcc.a(_sf_to_si.o)
 .text          0x0000000000000000        0x0 /opt/compiler/mspgcc-4.7.3/bin/../lib/gcc/msp430/4.7.3/mcpu-430x/mmpy-16/msr20/mc20/libgcc.a(_thenan_sf.o)
 .data          0x0000000000000000        0x0 /opt/compiler/mspgcc-4.7.3/bin/../lib/gcc/msp430/4.7.3/mcpu-430x/mmpy-16/msr20/mc20/libgcc.a(_thenan_sf.o)
 .bss           0x0000000000000000        0x0 /opt/compiler/mspgcc-4.7.3/bin/../lib/gcc/msp430/4.7.3/mcpu-430x/mmpy-16/msr20/mc20/libgcc.a(_thenan_sf.o)
 .rodata        0x0000000000000000        0x8 /opt/compiler/mspgcc-4.7.3/bin/../lib/gcc/msp430/4.7.3/mcpu-430x/mmpy-16/msr20/mc20/libgcc.a(_thenan_sf.o)
 .debug_info    0x0000000000000000      0x169 /opt/compiler/mspgcc-4.7.3/bin/../lib/gcc/msp430/4.7.3/mcpu-430x/mmpy-16/msr20/mc20/libgcc.a(_thenan_sf.o)
 .debug_abbrev  0x0000000000000000       0xc5 /opt/compiler/mspgcc-4.7.3/bin/../lib/gcc/msp430/4.7.3/mcpu-430x/mmpy-16/msr20/mc20/libgcc.a(_thenan_sf.o)
 .debug_aranges
                0x0000000000000000       0x18 /opt/compiler/mspgcc-4.7.3/bin/../lib/gcc/msp430/4.7.3/mcpu-430x/mmpy-16/msr20/mc20/libgcc.a(_thenan_sf.o)
 .debug_line    0x0000000000000000       0xa2 /opt/compiler/mspgcc-4.7.3/bin/../lib/gcc/msp430/4.7.3/mcpu-430x/mmpy-16/msr20/mc20/libgcc.a(_thenan_sf.o)
 .debug_str     0x0000000000000000      0x1fb /opt/compiler/mspgcc-4.7.3/bin/../lib/gcc/msp430/4.7.3/mcpu-430x/mmpy-16/msr20/mc20/libgcc.a(_thenan_sf.o)
 .comment       0x0000000000000000       0x31 /opt/compiler/mspgcc-4.7.3/bin/../lib/gcc/msp430/4.7.3/mcpu-430x/mmpy-16/msr20/mc20/libgcc.a(_thenan_sf.o)
 .gnu.attributes
                0x0000000000000000       0x11 /opt/compiler/mspgcc-4.7.3/bin/../lib/gcc/msp430/4.7.3/mcpu-430x/mmpy-16/msr20/mc20/libgcc.a(_thenan_sf.o)
 .text          0x0000000000000000        0x0 /opt/compiler/mspgcc-4.7.3/bin/../lib/gcc/msp430/4.7.3/mcpu-430x/mmpy-16/msr20/mc20/libgcc.a(_udivmod64.o)
 .data          0x0000000000000000        0x0 /opt/compiler/mspgcc-4.7.3/bin/../lib/gcc/msp430/4.7.3/mcpu-430x/mmpy-16/msr20/mc20/libgcc.a(_udivmod64.o)
 .bss           0x0000000000000000        0x0 /opt/compiler/mspgcc-4.7.3/bin/../lib/gcc/msp430/4.7.3/mcpu-430x/mmpy-16/msr20/mc20/libgcc.a(_udivmod64.o)
 .text          0x0000000000000000        0x0 /opt/compiler/mspgcc-4.7.3/bin/../lib/gcc/msp430/4.7.3/mcpu-430x/mmpy-16/msr20/mc20/libgcc.a(_clzsi2.o)
 .data          0x0000000000000000        0x0 /opt/compiler/mspgcc-4.7.3/bin/../lib/gcc/msp430/4.7.3/mcpu-430x/mmpy-16/msr20/mc20/libgcc.a(_clzsi2.o)
 .bss           0x0000000000000000        0x0 /opt/compiler/mspgcc-4.7.3/bin/../lib/gcc/msp430/4.7.3/mcpu-430x/mmpy-16/msr20/mc20/libgcc.a(_clzsi2.o)
 .text          0x0000000000000000        0x0 /opt/compiler/mspgcc-4.7.3/bin/../lib/gcc/msp430/4.7.3/mcpu-430x/mmpy-16/msr20/mc20/libgcc.a(_pack_sf.o)
 .data          0x0000000000000000        0x0 /opt/compiler/mspgcc-4.7.3/bin/../lib/gcc/msp430/4.7.3/mcpu-430x/mmpy-16/msr20/mc20/libgcc.a(_pack_sf.o)
 .bss           0x0000000000000000        0x0 /opt/compiler/mspgcc-4.7.3/bin/../lib/gcc/msp430/4.7.3/mcpu-430x/mmpy-16/msr20/mc20/libgcc.a(_pack_sf.o)
 .text          0x0000000000000000        0x0 /opt/compiler/mspgcc-4.7.3/bin/../lib/gcc/msp430/4.7.3/mcpu-430x/mmpy-16/msr20/mc20/libgcc.a(_unpack_sf.o)
 .data          0x0000000000000000        0x0 /opt/compiler/mspgcc-4.7.3/bin/../lib/gcc/msp430/4.7.3/mcpu-430x/mmpy-16/msr20/mc20/libgcc.a(_unpack_sf.o)
 .bss           0x0000000000000000        0x0 /opt/compiler/mspgcc-4.7.3/bin/../lib/gcc/msp430/4.7.3/mcpu-430x/mmpy-16/msr20/mc20/libgcc.a(_unpack_sf.o)
 .text          0x0000000000000000        0x0 /opt/compiler/mspgcc-4.7.3/bin/../lib/gcc/msp430/4.7.3/mcpu-430x/mmpy-16/msr20/mc20/libgcc.a(_fpcmp_parts_sf.o)
 .data          0x0000000000000000        0x0 /opt/compiler/mspgcc-4.7.3/bin/../lib/gcc/msp430/4.7.3/mcpu-430x/mmpy-16/msr20/mc20/libgcc.a(_fpcmp_parts_sf.o)
 .bss           0x0000000000000000        0x0 /opt/compiler/mspgcc-4.7.3/bin/../lib/gcc/msp430/4.7.3/mcpu-430x/mmpy-16/msr20/mc20/libgcc.a(_fpcmp_parts_sf.o)
 .text          0x0000000000000000        0x0 /opt/compiler/mspgcc-4.7.3/bin/../lib/gcc/msp430/4.7.3/mcpu-430x/mmpy-16/msr20/mc20/libgcc.a(_clz.o)
 .data          0x0000000000000000        0x0 /opt/compiler/mspgcc-4.7.3/bin/../lib/gcc/msp430/4.7.3/mcpu-430x/mmpy-16/msr20/mc20/libgcc.a(_clz.o)
 .bss           0x0000000000000000        0x0 /opt/compiler/mspgcc-4.7.3/bin/../lib/gcc/msp430/4.7.3/mcpu-430x/mmpy-16/msr20/mc20/libgcc.a(_clz.o)
 .text          0x0000000000000000        0x0 /opt/compiler/mspgcc-4.7.3/bin/../lib/gcc/msp430/4.7.3/../../../../msp430/lib/mcpu-430x/mmpy-16/msr20/mc20/libc.a(strtol.o)
 .data          0x0000000000000000        0x0 /opt/compiler/mspgcc-4.7.3/bin/../lib/gcc/msp430/4.7.3/../../../../msp430/lib/mcpu-430x/mmpy-16/msr20/mc20/libc.a(strtol.o)
 .bss           0x0000000000000000        0x0 /opt/compiler/mspgcc-4.7.3/bin/../lib/gcc/msp430/4.7.3/../../../../msp430/lib/mcpu-430x/mmpy-16/msr20/mc20/libc.a(strtol.o)
 .text          0x0000000000000000        0x0 /opt/compiler/mspgcc-4.7.3/bin/../lib/gcc/msp430/4.7.3/../../../../msp430/lib/mcpu-430x/mmpy-16/msr20/mc20/libc.a(printf.o)
 .data          0x0000000000000000        0x0 /opt/compiler/mspgcc-4.7.3/bin/../lib/gcc/msp430/4.7.3/../../../../msp430/lib/mcpu-430x/mmpy-16/msr20/mc20/libc.a(printf.o)
 .bss           0x0000000000000000        0x0 /opt/compiler/mspgcc-4.7.3/bin/../lib/gcc/msp430/4.7.3/../../../../msp430/lib/mcpu-430x/mmpy-16/msr20/mc20/libc.a(printf.o)
 .any.text.vprintf
                0x0000000000000000        0xe /opt/compiler/mspgcc-4.7.3/bin/../lib/gcc/msp430/4.7.3/../../../../msp430/lib/mcpu-430x/mmpy-16/msr20/mc20/libc.a(printf.o)
 .text          0x0000000000000000        0x0 /opt/compiler/mspgcc-4.7.3/bin/../lib/gcc/msp430/4.7.3/../../../../msp430/lib/mcpu-430x/mmpy-16/msr20/mc20/libc.a(sprintf.o)
 .data          0x0000000000000000        0x0 /opt/compiler/mspgcc-4.7.3/bin/../lib/gcc/msp430/4.7.3/../../../../msp430/lib/mcpu-430x/mmpy-16/msr20/mc20/libc.a(sprintf.o)
 .bss           0x0000000000000000        0x0 /opt/compiler/mspgcc-4.7.3/bin/../lib/gcc/msp430/4.7.3/../../../../msp430/lib/mcpu-430x/mmpy-16/msr20/mc20/libc.a(sprintf.o)
 .any.text.sprintf
                0x0000000000000000       0x1a /opt/compiler/mspgcc-4.7.3/bin/../lib/gcc/msp430/4.7.3/../../../../msp430/lib/mcpu-430x/mmpy-16/msr20/mc20/libc.a(sprintf.o)
 .any.text.vsprintf
                0x0000000000000000       0x16 /opt/compiler/mspgcc-4.7.3/bin/../lib/gcc/msp430/4.7.3/../../../../msp430/lib/mcpu-430x/mmpy-16/msr20/mc20/libc.a(sprintf.o)
 .any.text.vsnprintf
                0x0000000000000000       0x12 /opt/compiler/mspgcc-4.7.3/bin/../lib/gcc/msp430/4.7.3/../../../../msp430/lib/mcpu-430x/mmpy-16/msr20/mc20/libc.a(sprintf.o)
 .text          0x0000000000000000        0x0 /opt/compiler/mspgcc-4.7.3/bin/../lib/gcc/msp430/4.7.3/../../../../msp430/lib/mcpu-430x/mmpy-16/msr20/mc20/libc.a(vuprintf.o)
 .data          0x0000000000000000        0x0 /opt/compiler/mspgcc-4.7.3/bin/../lib/gcc/msp430/4.7.3/../../../../msp430/lib/mcpu-430x/mmpy-16/msr20/mc20/libc.a(vuprintf.o)
 .bss           0x0000000000000000        0x0 /opt/compiler/mspgcc-4.7.3/bin/../lib/gcc/msp430/4.7.3/../../../../msp430/lib/mcpu-430x/mmpy-16/msr20/mc20/libc.a(vuprintf.o)
 .text          0x0000000000000000        0x0 /opt/compiler/mspgcc-4.7.3/bin/../lib/gcc/msp430/4.7.3/../../../../msp430/lib/mcpu-430x/mmpy-16/msr20/mc20/libc.a(puts.o)
 .data          0x0000000000000000        0x0 /opt/compiler/mspgcc-4.7.3/bin/../lib/gcc/msp430/4.7.3/../../../../msp430/lib/mcpu-430x/mmpy-16/msr20/mc20/libc.a(puts.o)
 .bss           0x0000000000000000        0x0 /opt/compiler/mspgcc-4.7.3/bin/../lib/gcc/msp430/4.7.3/../../../../msp430/lib/mcpu-430x/mmpy-16/msr20/mc20/libc.a(puts.o)
 .text          0x0000000000000000        0x0 /opt/compiler/mspgcc-4.7.3/bin/../lib/gcc/msp430/4.7.3/../../../../msp430/lib/mcpu-430x/mmpy-16/msr20/mc20/libc.a(rand.o)
 .data          0x0000000000000000        0x0 /opt/compiler/mspgcc-4.7.3/bin/../lib/gcc/msp430/4.7.3/../../../../msp430/lib/mcpu-430x/mmpy-16/msr20/mc20/libc.a(rand.o)
 .bss           0x0000000000000000        0x0 /opt/compiler/mspgcc-4.7.3/bin/../lib/gcc/msp430/4.7.3/../../../../msp430/lib/mcpu-430x/mmpy-16/msr20/mc20/libc.a(rand.o)
 .any.text.rand_r
                0x0000000000000000       0x24 /opt/compiler/mspgcc-4.7.3/bin/../lib/gcc/msp430/4.7.3/../../../../msp430/lib/mcpu-430x/mmpy-16/msr20/mc20/libc.a(rand.o)
 .text          0x0000000000000000        0x0 /opt/compiler/mspgcc-4.7.3/bin/../lib/gcc/msp430/4.7.3/../../../../msp430/lib/mcpu-430x/mmpy-16/msr20/mc20/libc.a(strchr.o)
 .data          0x0000000000000000        0x0 /opt/compiler/mspgcc-4.7.3/bin/../lib/gcc/msp430/4.7.3/../../../../msp430/lib/mcpu-430x/mmpy-16/msr20/mc20/libc.a(strchr.o)
 .bss           0x0000000000000000        0x0 /opt/compiler/mspgcc-4.7.3/bin/../lib/gcc/msp430/4.7.3/../../../../msp430/lib/mcpu-430x/mmpy-16/msr20/mc20/libc.a(strchr.o)
 .text          0x0000000000000000        0x0 /opt/compiler/mspgcc-4.7.3/bin/../lib/gcc/msp430/4.7.3/../../../../msp430/lib/mcpu-430x/mmpy-16/msr20/mc20/libc.a(strcmp.o)
 .data          0x0000000000000000        0x0 /opt/compiler/mspgcc-4.7.3/bin/../lib/gcc/msp430/4.7.3/../../../../msp430/lib/mcpu-430x/mmpy-16/msr20/mc20/libc.a(strcmp.o)
 .bss           0x0000000000000000        0x0 /opt/compiler/mspgcc-4.7.3/bin/../lib/gcc/msp430/4.7.3/../../../../msp430/lib/mcpu-430x/mmpy-16/msr20/mc20/libc.a(strcmp.o)
 .text          0x0000000000000000        0x0 /opt/compiler/mspgcc-4.7.3/bin/../lib/gcc/msp430/4.7.3/../../../../msp430/lib/mcpu-430x/mmpy-16/msr20/mc20/libc.a(strncmp.o)
 .data          0x0000000000000000        0x0 /opt/compiler/mspgcc-4.7.3/bin/../lib/gcc/msp430/4.7.3/../../../../msp430/lib/mcpu-430x/mmpy-16/msr20/mc20/libc.a(strncmp.o)
 .bss           0x0000000000000000        0x0 /opt/compiler/mspgcc-4.7.3/bin/../lib/gcc/msp430/4.7.3/../../../../msp430/lib/mcpu-430x/mmpy-16/msr20/mc20/libc.a(strncmp.o)
 .any.text.strncmp
                0x0000000000000000       0x2a /opt/compiler/mspgcc-4.7.3/bin/../lib/gcc/msp430/4.7.3/../../../../msp430/lib/mcpu-430x/mmpy-16/msr20/mc20/libc.a(strncmp.o)
 .debug_frame   0x0000000000000000       0x2c /opt/compiler/mspgcc-4.7.3/bin/../lib/gcc/msp430/4.7.3/../../../../msp430/lib/mcpu-430x/mmpy-16/msr20/mc20/libc.a(strncmp.o)
 .debug_info    0x0000000000000000       0xd8 /opt/compiler/mspgcc-4.7.3/bin/../lib/gcc/msp430/4.7.3/../../../../msp430/lib/mcpu-430x/mmpy-16/msr20/mc20/libc.a(strncmp.o)
 .debug_abbrev  0x0000000000000000       0x72 /opt/compiler/mspgcc-4.7.3/bin/../lib/gcc/msp430/4.7.3/../../../../msp430/lib/mcpu-430x/mmpy-16/msr20/mc20/libc.a(strncmp.o)
 .debug_loc     0x0000000000000000       0x7a /opt/compiler/mspgcc-4.7.3/bin/../lib/gcc/msp430/4.7.3/../../../../msp430/lib/mcpu-430x/mmpy-16/msr20/mc20/libc.a(strncmp.o)
 .debug_aranges
                0x0000000000000000       0x20 /opt/compiler/mspgcc-4.7.3/bin/../lib/gcc/msp430/4.7.3/../../../../msp430/lib/mcpu-430x/mmpy-16/msr20/mc20/libc.a(strncmp.o)
 .debug_ranges  0x0000000000000000       0x10 /opt/compiler/mspgcc-4.7.3/bin/../lib/gcc/msp430/4.7.3/../../../../msp430/lib/mcpu-430x/mmpy-16/msr20/mc20/libc.a(strncmp.o)
 .debug_line    0x0000000000000000       0x93 /opt/compiler/mspgcc-4.7.3/bin/../lib/gcc/msp430/4.7.3/../../../../msp430/lib/mcpu-430x/mmpy-16/msr20/mc20/libc.a(strncmp.o)
 .debug_str     0x0000000000000000      0x113 /opt/compiler/mspgcc-4.7.3/bin/../lib/gcc/msp430/4.7.3/../../../../msp430/lib/mcpu-430x/mmpy-16/msr20/mc20/libc.a(strncmp.o)
 .comment       0x0000000000000000       0x31 /opt/compiler/mspgcc-4.7.3/bin/../lib/gcc/msp430/4.7.3/../../../../msp430/lib/mcpu-430x/mmpy-16/msr20/mc20/libc.a(strncmp.o)
 .gnu.attributes
                0x0000000000000000       0x11 /opt/compiler/mspgcc-4.7.3/bin/../lib/gcc/msp430/4.7.3/../../../../msp430/lib/mcpu-430x/mmpy-16/msr20/mc20/libc.a(strncmp.o)
 .text          0x0000000000000000        0x0 /opt/compiler/mspgcc-4.7.3/bin/../lib/gcc/msp430/4.7.3/../../../../msp430/lib/mcpu-430x/mmpy-16/msr20/mc20/libc.a(memcmp.o)
 .data          0x0000000000000000        0x0 /opt/compiler/mspgcc-4.7.3/bin/../lib/gcc/msp430/4.7.3/../../../../msp430/lib/mcpu-430x/mmpy-16/msr20/mc20/libc.a(memcmp.o)
 .bss           0x0000000000000000        0x0 /opt/compiler/mspgcc-4.7.3/bin/../lib/gcc/msp430/4.7.3/../../../../msp430/lib/mcpu-430x/mmpy-16/msr20/mc20/libc.a(memcmp.o)
 .text          0x0000000000000000        0x0 /opt/compiler/mspgcc-4.7.3/bin/../lib/gcc/msp430/4.7.3/../../../../msp430/lib/mcpu-430x/mmpy-16/msr20/mc20/libc.a(strcpy.o)
 .data          0x0000000000000000        0x0 /opt/compiler/mspgcc-4.7.3/bin/../lib/gcc/msp430/4.7.3/../../../../msp430/lib/mcpu-430x/mmpy-16/msr20/mc20/libc.a(strcpy.o)
 .bss           0x0000000000000000        0x0 /opt/compiler/mspgcc-4.7.3/bin/../lib/gcc/msp430/4.7.3/../../../../msp430/lib/mcpu-430x/mmpy-16/msr20/mc20/libc.a(strcpy.o)
 .text          0x0000000000000000        0x0 /opt/compiler/mspgcc-4.7.3/bin/../lib/gcc/msp430/4.7.3/../../../../msp430/lib/mcpu-430x/mmpy-16/msr20/mc20/libc.a(memcpy.o)
 .data          0x0000000000000000        0x0 /opt/compiler/mspgcc-4.7.3/bin/../lib/gcc/msp430/4.7.3/../../../../msp430/lib/mcpu-430x/mmpy-16/msr20/mc20/libc.a(memcpy.o)
 .bss           0x0000000000000000        0x0 /opt/compiler/mspgcc-4.7.3/bin/../lib/gcc/msp430/4.7.3/../../../../msp430/lib/mcpu-430x/mmpy-16/msr20/mc20/libc.a(memcpy.o)
 .text          0x0000000000000000        0x0 /opt/compiler/mspgcc-4.7.3/bin/../lib/gcc/msp430/4.7.3/../../../../msp430/lib/mcpu-430x/mmpy-16/msr20/mc20/libc.a(memmove.o)
 .data          0x0000000000000000        0x0 /opt/compiler/mspgcc-4.7.3/bin/../lib/gcc/msp430/4.7.3/../../../../msp430/lib/mcpu-430x/mmpy-16/msr20/mc20/libc.a(memmove.o)
 .bss           0x0000000000000000        0x0 /opt/compiler/mspgcc-4.7.3/bin/../lib/gcc/msp430/4.7.3/../../../../msp430/lib/mcpu-430x/mmpy-16/msr20/mc20/libc.a(memmove.o)
 .text          0x0000000000000000        0x0 /opt/compiler/mspgcc-4.7.3/bin/../lib/gcc/msp430/4.7.3/../../../../msp430/lib/mcpu-430x/mmpy-16/msr20/mc20/libc.a(memset.o)
 .data          0x0000000000000000        0x0 /opt/compiler/mspgcc-4.7.3/bin/../lib/gcc/msp430/4.7.3/../../../../msp430/lib/mcpu-430x/mmpy-16/msr20/mc20/libc.a(memset.o)
 .bss           0x0000000000000000        0x0 /opt/compiler/mspgcc-4.7.3/bin/../lib/gcc/msp430/4.7.3/../../../../msp430/lib/mcpu-430x/mmpy-16/msr20/mc20/libc.a(memset.o)
 .text          0x0000000000000000        0x0 /opt/compiler/mspgcc-4.7.3/bin/../lib/gcc/msp430/4.7.3/../../../../msp430/lib/mcpu-430x/mmpy-16/msr20/mc20/libc.a(strcat.o)
 .data          0x0000000000000000        0x0 /opt/compiler/mspgcc-4.7.3/bin/../lib/gcc/msp430/4.7.3/../../../../msp430/lib/mcpu-430x/mmpy-16/msr20/mc20/libc.a(strcat.o)
 .bss           0x0000000000000000        0x0 /opt/compiler/mspgcc-4.7.3/bin/../lib/gcc/msp430/4.7.3/../../../../msp430/lib/mcpu-430x/mmpy-16/msr20/mc20/libc.a(strcat.o)
 .text          0x0000000000000000        0x0 /opt/compiler/mspgcc-4.7.3/bin/../lib/gcc/msp430/4.7.3/../../../../msp430/lib/mcpu-430x/mmpy-16/msr20/mc20/libc.a(ldiv.o)
 .data          0x0000000000000000        0x0 /opt/compiler/mspgcc-4.7.3/bin/../lib/gcc/msp430/4.7.3/../../../../msp430/lib/mcpu-430x/mmpy-16/msr20/mc20/libc.a(ldiv.o)
 .bss           0x0000000000000000        0x0 /opt/compiler/mspgcc-4.7.3/bin/../lib/gcc/msp430/4.7.3/../../../../msp430/lib/mcpu-430x/mmpy-16/msr20/mc20/libc.a(ldiv.o)
 .text          0x0000000000000000        0x0 /opt/compiler/mspgcc-4.7.3/bin/../lib/gcc/msp430/4.7.3/../../../../msp430/lib/mcpu-430x/mmpy-16/msr20/mc20/libc.a(errno.o)
 .data          0x0000000000000000        0x0 /opt/compiler/mspgcc-4.7.3/bin/../lib/gcc/msp430/4.7.3/../../../../msp430/lib/mcpu-430x/mmpy-16/msr20/mc20/libc.a(errno.o)
 .bss           0x0000000000000000        0x0 /opt/compiler/mspgcc-4.7.3/bin/../lib/gcc/msp430/4.7.3/../../../../msp430/lib/mcpu-430x/mmpy-16/msr20/mc20/libc.a(errno.o)
 .text          0x0000000000000000        0x0 /opt/compiler/mspgcc-4.7.3/bin/../lib/gcc/msp430/4.7.3/mcpu-430x/mmpy-16/msr20/mc20/libcrt0.a(_reset_vector__.o)
 .data          0x0000000000000000        0x0 /opt/compiler/mspgcc-4.7.3/bin/../lib/gcc/msp430/4.7.3/mcpu-430x/mmpy-16/msr20/mc20/libcrt0.a(_reset_vector__.o)
 .bss           0x0000000000000000        0x0 /opt/compiler/mspgcc-4.7.3/bin/../lib/gcc/msp430/4.7.3/mcpu-430x/mmpy-16/msr20/mc20/libcrt0.a(_reset_vector__.o)
 .text          0x0000000000000000        0x0 /opt/compiler/mspgcc-4.7.3/bin/../lib/gcc/msp430/4.7.3/mcpu-430x/mmpy-16/msr20/mc20/libcrt0.a(__watchdog_support.o)
 .data          0x0000000000000000        0x0 /opt/compiler/mspgcc-4.7.3/bin/../lib/gcc/msp430/4.7.3/mcpu-430x/mmpy-16/msr20/mc20/libcrt0.a(__watchdog_support.o)
 .bss           0x0000000000000000        0x0 /opt/compiler/mspgcc-4.7.3/bin/../lib/gcc/msp430/4.7.3/mcpu-430x/mmpy-16/msr20/mc20/libcrt0.a(__watchdog_support.o)
 .text          0x0000000000000000        0x0 /opt/compiler/mspgcc-4.7.3/bin/../lib/gcc/msp430/4.7.3/mcpu-430x/mmpy-16/msr20/mc20/libcrt0.a(__init_stack.o)
 .data          0x0000000000000000        0x0 /opt/compiler/mspgcc-4.7.3/bin/../lib/gcc/msp430/4.7.3/mcpu-430x/mmpy-16/msr20/mc20/libcrt0.a(__init_stack.o)
 .bss           0x0000000000000000        0x0 /opt/compiler/mspgcc-4.7.3/bin/../lib/gcc/msp430/4.7.3/mcpu-430x/mmpy-16/msr20/mc20/libcrt0.a(__init_stack.o)
 .text          0x0000000000000000        0x0 /opt/compiler/mspgcc-4.7.3/bin/../lib/gcc/msp430/4.7.3/mcpu-430x/mmpy-16/msr20/mc20/libcrt0.a(__low_level_init.o)
 .data          0x0000000000000000        0x0 /opt/compiler/mspgcc-4.7.3/bin/../lib/gcc/msp430/4.7.3/mcpu-430x/mmpy-16/msr20/mc20/libcrt0.a(__low_level_init.o)
 .bss           0x0000000000000000        0x0 /opt/compiler/mspgcc-4.7.3/bin/../lib/gcc/msp430/4.7.3/mcpu-430x/mmpy-16/msr20/mc20/libcrt0.a(__low_level_init.o)
 .text          0x0000000000000000        0x0 /opt/compiler/mspgcc-4.7.3/bin/../lib/gcc/msp430/4.7.3/mcpu-430x/mmpy-16/msr20/mc20/libcrt0.a(_copy_data.o)
 .data          0x0000000000000000        0x0 /opt/compiler/mspgcc-4.7.3/bin/../lib/gcc/msp430/4.7.3/mcpu-430x/mmpy-16/msr20/mc20/libcrt0.a(_copy_data.o)
 .bss           0x0000000000000000        0x0 /opt/compiler/mspgcc-4.7.3/bin/../lib/gcc/msp430/4.7.3/mcpu-430x/mmpy-16/msr20/mc20/libcrt0.a(_copy_data.o)
 .text          0x0000000000000000        0x0 /opt/compiler/mspgcc-4.7.3/bin/../lib/gcc/msp430/4.7.3/mcpu-430x/mmpy-16/msr20/mc20/libcrt0.a(_clear_bss.o)
 .data          0x0000000000000000        0x0 /opt/compiler/mspgcc-4.7.3/bin/../lib/gcc/msp430/4.7.3/mcpu-430x/mmpy-16/msr20/mc20/libcrt0.a(_clear_bss.o)
 .bss           0x0000000000000000        0x0 /opt/compiler/mspgcc-4.7.3/bin/../lib/gcc/msp430/4.7.3/mcpu-430x/mmpy-16/msr20/mc20/libcrt0.a(_clear_bss.o)
 .text          0x0000000000000000        0x0 /opt/compiler/mspgcc-4.7.3/bin/../lib/gcc/msp430/4.7.3/mcpu-430x/mmpy-16/msr20/mc20/libcrt0.a(__stop_progExec__.o)
 .data          0x0000000000000000        0x0 /opt/compiler/mspgcc-4.7.3/bin/../lib/gcc/msp430/4.7.3/mcpu-430x/mmpy-16/msr20/mc20/libcrt0.a(__stop_progExec__.o)
 .bss           0x0000000000000000        0x0 /opt/compiler/mspgcc-4.7.3/bin/../lib/gcc/msp430/4.7.3/mcpu-430x/mmpy-16/msr20/mc20/libcrt0.a(__stop_progExec__.o)
 .text          0x0000000000000000        0x0 /opt/compiler/mspgcc-4.7.3/bin/../lib/gcc/msp430/4.7.3/mcpu-430x/mmpy-16/msr20/mc20/libcrt0.a(_endless_loop__.o)
 .data          0x0000000000000000        0x0 /opt/compiler/mspgcc-4.7.3/bin/../lib/gcc/msp430/4.7.3/mcpu-430x/mmpy-16/msr20/mc20/libcrt0.a(_endless_loop__.o)
 .bss           0x0000000000000000        0x0 /opt/compiler/mspgcc-4.7.3/bin/../lib/gcc/msp430/4.7.3/mcpu-430x/mmpy-16/msr20/mc20/libcrt0.a(_endless_loop__.o)
 .text          0x0000000000000000        0x0 /opt/compiler/mspgcc-4.7.3/bin/../lib/gcc/msp430/4.7.3/mcpu-430x/mmpy-16/msr20/mc20/libcrt0.a(_unexpected_.o)
 .data          0x0000000000000000        0x0 /opt/compiler/mspgcc-4.7.3/bin/../lib/gcc/msp430/4.7.3/mcpu-430x/mmpy-16/msr20/mc20/libcrt0.a(_unexpected_.o)
 .bss           0x0000000000000000        0x0 /opt/compiler/mspgcc-4.7.3/bin/../lib/gcc/msp430/4.7.3/mcpu-430x/mmpy-16/msr20/mc20/libcrt0.a(_unexpected_.o)

Memory Configuration

Name             Origin             Length             Attributes
sfr              0x0000000000000000 0x0000000000000010
peripheral_8bit  0x0000000000000010 0x00000000000000f0
peripheral_16bit 0x0000000000000100 0x0000000000000100
ram_mirror       0x0000000000000200 0x0000000000000800 xw
infomem          0x0000000000001000 0x0000000000000100
infod            0x0000000000001000 0x0000000000000040
infoc            0x0000000000001040 0x0000000000000040
infob            0x0000000000001080 0x0000000000000040
infoa            0x00000000000010c0 0x0000000000000040
ram              0x0000000000001100 0x0000000000002000 xw
rom              0x0000000000003100 0x000000000000cebe xr
vectors          0x000000000000ffc0 0x0000000000000040
far_rom          0x0000000000010000 0x000000000000a000
bsl              0x0000000000000000 0x0000000000000000
ram2             0x0000000000000000 0x0000000000000000 xw
usbram           0x0000000000000000 0x0000000000000000 xw
*default*        0x0000000000000000 0xffffffffffffffff

Linker script and memory map

LOAD /opt/compiler/mspgcc-4.7.3/bin/../lib/gcc/msp430/4.7.3/mcpu-430x/mmpy-16/msr20/mc20/crt0ivtbl32.o
                0x0000000000000041                __P1SEL2 = 0x41
                0x0000000000000045                __P5SEL2 = 0x45
                0x0000000000002910                _stack = _end
LOAD udp-server.o
LOAD build/z1/obj/contiki-main.o
LOAD build/z1/contiki-ng-z1.a
LOAD /opt/compiler/mspgcc-4.7.3/bin/../lib/gcc/msp430/4.7.3/mcpu-430x/mmpy-16/msr20/mc20/libgcc.a
LOAD /opt/compiler/mspgcc-4.7.3/bin/../lib/gcc/msp430/4.7.3/../../../../msp430/lib/mcpu-430x/mmpy-16/msr20/mc20/libc.a
LOAD /opt/compiler/mspgcc-4.7.3/bin/../lib/gcc/msp430/4.7.3/mcpu-430x/mmpy-16/msr20/mc20/libgcc.a
LOAD /opt/compiler/mspgcc-4.7.3/bin/../lib/gcc/msp430/4.7.3/mcpu-430x/mmpy-16/msr20/mc20/libcrt0.a
                0x0000000000000040                PROVIDE (__info_segment_size, 0x40)
                0x0000000000001000                PROVIDE (__infod, 0x1000)
                0x0000000000001040                PROVIDE (__infoc, 0x1040)
                0x0000000000001080                PROVIDE (__infob, 0x1080)
                0x00000000000010c0                PROVIDE (__infoa, 0x10c0)
                0x0000000000000000                __IE1 = 0x0
                0x0000000000000002                __IFG1 = 0x2
                0x0000000000000001                __IE2 = 0x1
                0x0000000000000003                __IFG2 = 0x3
                0x0000000000000006                __UC1IE = 0x6
                0x0000000000000007                __UC1IFG = 0x7
                0x00000000000001a0                __ADC12CTL0 = 0x1a0
                0x00000000000001a2                __ADC12CTL1 = 0x1a2
                0x00000000000001a4                __ADC12IFG = 0x1a4
                0x00000000000001a6                __ADC12IE = 0x1a6
                0x00000000000001a8                __ADC12IV = 0x1a8
                0x0000000000000140                __ADC12MEM0 = 0x140
                0x0000000000000142                __ADC12MEM1 = 0x142
                0x0000000000000144                __ADC12MEM2 = 0x144
                0x0000000000000146                __ADC12MEM3 = 0x146
                0x0000000000000148                __ADC12MEM4 = 0x148
                0x000000000000014a                __ADC12MEM5 = 0x14a
                0x000000000000014c                __ADC12MEM6 = 0x14c
                0x000000000000014e                __ADC12MEM7 = 0x14e
                0x0000000000000150                __ADC12MEM8 = 0x150
                0x0000000000000152                __ADC12MEM9 = 0x152
                0x0000000000000154                __ADC12MEM10 = 0x154
                0x0000000000000156                __ADC12MEM11 = 0x156
                0x0000000000000158                __ADC12MEM12 = 0x158
                0x000000000000015a                __ADC12MEM13 = 0x15a
                0x000000000000015c                __ADC12MEM14 = 0x15c
                0x000000000000015e                __ADC12MEM15 = 0x15e
                0x0000000000000080                __ADC12MCTL0 = 0x80
                0x0000000000000081                __ADC12MCTL1 = 0x81
                0x0000000000000082                __ADC12MCTL2 = 0x82
                0x0000000000000083                __ADC12MCTL3 = 0x83
                0x0000000000000084                __ADC12MCTL4 = 0x84
                0x0000000000000085                __ADC12MCTL5 = 0x85
                0x0000000000000086                __ADC12MCTL6 = 0x86
                0x0000000000000087                __ADC12MCTL7 = 0x87
                0x0000000000000088                __ADC12MCTL8 = 0x88
                0x0000000000000089                __ADC12MCTL9 = 0x89
                0x000000000000008a                __ADC12MCTL10 = 0x8a
                0x000000000000008b                __ADC12MCTL11 = 0x8b
                0x000000000000008c                __ADC12MCTL12 = 0x8c
                0x000000000000008d                __ADC12MCTL13 = 0x8d
                0x000000000000008e                __ADC12MCTL14 = 0x8e
                0x000000000000008f                __ADC12MCTL15 = 0x8f
                0x0000000000000056                __DCOCTL = 0x56
                0x0000000000000057                __BCSCTL1 = 0x57
                0x0000000000000058                __BCSCTL2 = 0x58
                0x0000000000000053                __BCSCTL3 = 0x53
                0x0000000000000059                __CACTL1 = 0x59
                0x000000000000005a                __CACTL2 = 0x5a
                0x000000000000005b                __CAPD = 0x5b
                0x00000000000001c0                __DAC12_0CTL = 0x1c0
                0x00000000000001c2                __DAC12_1CTL = 0x1c2
                0x00000000000001c8                __DAC12_0DAT = 0x1c8
                0x00000000000001ca                __DAC12_1DAT = 0x1ca
                0x0000000000000122                __DMACTL0 = 0x122
                0x0000000000000124                __DMACTL1 = 0x124
                0x0000000000000126                __DMAIV = 0x126
                0x00000000000001d0                __DMA0CTL = 0x1d0
                0x00000000000001dc                __DMA1CTL = 0x1dc
                0x00000000000001e8                __DMA2CTL = 0x1e8
                0x00000000000001d2                __DMA0SA = 0x1d2
                0x00000000000001d2                __DMA0SAL = 0x1d2
                0x00000000000001d6                __DMA0DA = 0x1d6
                0x00000000000001d6                __DMA0DAL = 0x1d6
                0x00000000000001da                __DMA0SZ = 0x1da
                0x00000000000001de                __DMA1SA = 0x1de
                0x00000000000001de                __DMA1SAL = 0x1de
                0x00000000000001e2                __DMA1DA = 0x1e2
                0x00000000000001e2                __DMA1DAL = 0x1e2
                0x00000000000001e6                __DMA1SZ = 0x1e6
                0x00000000000001ea                __DMA2SA = 0x1ea
                0x00000000000001ea                __DMA2SAL = 0x1ea
                0x00000000000001ee                __DMA2DA = 0x1ee
                0x00000000000001ee                __DMA2DAL = 0x1ee
                0x00000000000001f2                __DMA2SZ = 0x1f2
                0x0000000000000128                __FCTL1 = 0x128
                0x000000000000012a                __FCTL2 = 0x12a
                0x000000000000012c                __FCTL3 = 0x12c
                0x00000000000001be                __FCTL4 = 0x1be
                0x0000000000000130                __MPY = 0x130
                0x0000000000000132                __MPYS = 0x132
                0x0000000000000134                __MAC = 0x134
                0x0000000000000136                __MACS = 0x136
                0x0000000000000138                __OP2 = 0x138
                0x000000000000013a                __RESLO = 0x13a
                0x000000000000013c                __RESHI = 0x13c
                0x000000000000013e                __SUMEXT = 0x13e
                0x0000000000000020                __P1IN = 0x20
                0x0000000000000021                __P1OUT = 0x21
                0x0000000000000022                __P1DIR = 0x22
                0x0000000000000023                __P1IFG = 0x23
                0x0000000000000024                __P1IES = 0x24
                0x0000000000000025                __P1IE = 0x25
                0x0000000000000026                __P1SEL = 0x26
                0x0000000000000027                __P1REN = 0x27
                0x0000000000000028                __P2IN = 0x28
                0x0000000000000029                __P2OUT = 0x29
                0x000000000000002a                __P2DIR = 0x2a
                0x000000000000002b                __P2IFG = 0x2b
                0x000000000000002c                __P2IES = 0x2c
                0x000000000000002d                __P2IE = 0x2d
                0x000000000000002e                __P2SEL = 0x2e
                0x000000000000002f                __P2REN = 0x2f
                0x0000000000000018                __P3IN = 0x18
                0x0000000000000019                __P3OUT = 0x19
                0x000000000000001a                __P3DIR = 0x1a
                0x000000000000001b                __P3SEL = 0x1b
                0x0000000000000010                __P3REN = 0x10
                0x000000000000001c                __P4IN = 0x1c
                0x000000000000001d                __P4OUT = 0x1d
                0x000000000000001e                __P4DIR = 0x1e
                0x000000000000001f                __P4SEL = 0x1f
                0x0000000000000011                __P4REN = 0x11
                0x0000000000000030                __P5IN = 0x30
                0x0000000000000031                __P5OUT = 0x31
                0x0000000000000032                __P5DIR = 0x32
                0x0000000000000033                __P5SEL = 0x33
                0x0000000000000012                __P5REN = 0x12
                0x0000000000000034                __P6IN = 0x34
                0x0000000000000035                __P6OUT = 0x35
                0x0000000000000036                __P6DIR = 0x36
                0x0000000000000037                __P6SEL = 0x37
                0x0000000000000013                __P6REN = 0x13
                0x0000000000000038                __P7IN = 0x38
                0x000000000000003a                __P7OUT = 0x3a
                0x000000000000003c                __P7DIR = 0x3c
                0x000000000000003e                __P7SEL = 0x3e
                0x0000000000000014                __P7REN = 0x14
                0x0000000000000039                __P8IN = 0x39
                0x000000000000003b                __P8OUT = 0x3b
                0x000000000000003d                __P8DIR = 0x3d
                0x000000000000003f                __P8SEL = 0x3f
                0x0000000000000015                __P8REN = 0x15
                0x0000000000000038                __PAIN = 0x38
                0x000000000000003a                __PAOUT = 0x3a
                0x000000000000003c                __PADIR = 0x3c
                0x000000000000003e                __PASEL = 0x3e
                0x0000000000000014                __PAREN = 0x14
                0x0000000000000055                __SVSCTL = 0x55
                0x000000000000012e                __TAIV = 0x12e
                0x0000000000000160                __TACTL = 0x160
                0x0000000000000162                __TACCTL0 = 0x162
                0x0000000000000164                __TACCTL1 = 0x164
                0x0000000000000166                __TACCTL2 = 0x166
                0x0000000000000170                __TAR = 0x170
                0x0000000000000172                __TACCR0 = 0x172
                0x0000000000000174                __TACCR1 = 0x174
                0x0000000000000176                __TACCR2 = 0x176
                0x000000000000011e                __TBIV = 0x11e
                0x0000000000000180                __TBCTL = 0x180
                0x0000000000000182                __TBCCTL0 = 0x182
                0x0000000000000184                __TBCCTL1 = 0x184
                0x0000000000000186                __TBCCTL2 = 0x186
                0x0000000000000188                __TBCCTL3 = 0x188
                0x000000000000018a                __TBCCTL4 = 0x18a
                0x000000000000018c                __TBCCTL5 = 0x18c
                0x000000000000018e                __TBCCTL6 = 0x18e
                0x0000000000000190                __TBR = 0x190
                0x0000000000000192                __TBCCR0 = 0x192
                0x0000000000000194                __TBCCR1 = 0x194
                0x0000000000000196                __TBCCR2 = 0x196
                0x0000000000000198                __TBCCR3 = 0x198
                0x000000000000019a                __TBCCR4 = 0x19a
                0x000000000000019c                __TBCCR5 = 0x19c
                0x000000000000019e                __TBCCR6 = 0x19e
                0x0000000000000060                __UCA0CTL0 = 0x60
                0x0000000000000061                __UCA0CTL1 = 0x61
                0x0000000000000062                __UCA0BR0 = 0x62
                0x0000000000000063                __UCA0BR1 = 0x63
                0x0000000000000064                __UCA0MCTL = 0x64
                0x0000000000000065                __UCA0STAT = 0x65
                0x0000000000000066                __UCA0RXBUF = 0x66
                0x0000000000000067                __UCA0TXBUF = 0x67
                0x000000000000005d                __UCA0ABCTL = 0x5d
                0x000000000000005e                __UCA0IRTCTL = 0x5e
                0x000000000000005f                __UCA0IRRCTL = 0x5f
                0x0000000000000068                __UCB0CTL0 = 0x68
                0x0000000000000069                __UCB0CTL1 = 0x69
                0x000000000000006a                __UCB0BR0 = 0x6a
                0x000000000000006b                __UCB0BR1 = 0x6b
                0x000000000000006c                __UCB0I2CIE = 0x6c
                0x000000000000006d                __UCB0STAT = 0x6d
                0x000000000000006e                __UCB0RXBUF = 0x6e
                0x000000000000006f                __UCB0TXBUF = 0x6f
                0x0000000000000118                __UCB0I2COA = 0x118
                0x000000000000011a                __UCB0I2CSA = 0x11a
                0x00000000000000d0                __UCA1CTL0 = 0xd0
                0x00000000000000d1                __UCA1CTL1 = 0xd1
                0x00000000000000d2                __UCA1BR0 = 0xd2
                0x00000000000000d3                __UCA1BR1 = 0xd3
                0x00000000000000d4                __UCA1MCTL = 0xd4
                0x00000000000000d5                __UCA1STAT = 0xd5
                0x00000000000000d6                __UCA1RXBUF = 0xd6
                0x00000000000000d7                __UCA1TXBUF = 0xd7
                0x00000000000000cd                __UCA1ABCTL = 0xcd
                0x00000000000000ce                __UCA1IRTCTL = 0xce
                0x00000000000000cf                __UCA1IRRCTL = 0xcf
                0x00000000000000d8                __UCB1CTL0 = 0xd8
                0x00000000000000d9                __UCB1CTL1 = 0xd9
                0x00000000000000da                __UCB1BR0 = 0xda
                0x00000000000000db                __UCB1BR1 = 0xdb
                0x00000000000000dc                __UCB1I2CIE = 0xdc
                0x00000000000000dd                __UCB1STAT = 0xdd
                0x00000000000000de                __UCB1RXBUF = 0xde
                0x00000000000000df                __UCB1TXBUF = 0xdf
                0x000000000000017c                __UCB1I2COA = 0x17c
                0x000000000000017e                __UCB1I2CSA = 0x17e
                0x0000000000000120                __WDTCTL = 0x120
                0x00000000000010c0                __TLV_CHECKSUM = 0x10c0
                0x00000000000010f6                __TLV_DCO_30_TAG = 0x10f6
                0x00000000000010f7                __TLV_DCO_30_LEN = 0x10f7
                0x00000000000010da                __TLV_ADC12_1_TAG = 0x10da
                0x00000000000010db                __TLV_ADC12_1_LEN = 0x10db
                0x00000000000010f8                __CALDCO_16MHZ = 0x10f8
                0x00000000000010f9                __CALBC1_16MHZ = 0x10f9
                0x00000000000010fa                __CALDCO_12MHZ = 0x10fa
                0x00000000000010fb                __CALBC1_12MHZ = 0x10fb
                0x00000000000010fc                __CALDCO_8MHZ = 0x10fc
                0x00000000000010fd                __CALBC1_8MHZ = 0x10fd
                0x00000000000010fe                __CALDCO_1MHZ = 0x10fe
                0x00000000000010ff                __CALBC1_1MHZ = 0x10ff

.hash
 *(.hash)

.dynsym
 *(.dynsym)

.dynstr
 *(.dynstr)

.gnu.version
 *(.gnu.version)

.gnu.version_d
 *(.gnu.version_d)

.gnu.version_r
 *(.gnu.version_r)

.rel.init
 *(.rel.init)

.rela.init
 *(.rela.init)

.rel.fini
 *(.rel.fini)

.rela.fini
 *(.rela.fini)

.rel.text
 *(.rel.text .rel.text.* .rel.gnu.linkonce.t.*)

.rela.text
 *(.rela.text .rela.text.* .rela.gnu.linkonce.t.*)

.rel.rodata
 *(.rel.rodata .rel.rodata.* .rel.gnu.linkonce.r.*)

.rela.rodata
 *(.rela.rodata .rela.rodata.* .rela.gnu.linkonce.r.*)

.rel.data
 *(.rel.data .rel.data.* .rel.gnu.linkonce.d.*)

.rela.data
 *(.rela.data .rela.data.* .rela.gnu.linkonce.d.*)

.rel.bss
 *(.rel.bss .rel.bss.* .rel.gnu.linkonce.b.*)

.rela.bss
 *(.rela.bss .rela.bss.* .rela.gnu.linkonce.b.*)

.rel.ctors
 *(.rel.ctors)

.rela.ctors
 *(.rela.ctors)

.rel.dtors
 *(.rel.dtors)

.rela.dtors
 *(.rela.dtors)

.rel.got
 *(.rel.got)

.rela.got
 *(.rela.got)

.rel.plt
 *(.rel.plt)

.rela.plt
 *(.rela.plt)

.text           0x0000000000003100     0xb578
                0x0000000000003100                . = ALIGN (0x2)
 *(.init .init.*)
 *(.init0)
 .init0         0x0000000000003100        0x0 /opt/compiler/mspgcc-4.7.3/bin/../lib/gcc/msp430/4.7.3/mcpu-430x/mmpy-16/msr20/mc20/libcrt0.a(_reset_vector__.o)
                0x0000000000003100                _reset_vector__
 *(.init1)
 .init1         0x0000000000003100        0xc /opt/compiler/mspgcc-4.7.3/bin/../lib/gcc/msp430/4.7.3/mcpu-430x/mmpy-16/msr20/mc20/libcrt0.a(__watchdog_support.o)
                0x0000000000003100                __watchdog_support
 *(.init2)
 .init2         0x000000000000310c        0x4 /opt/compiler/mspgcc-4.7.3/bin/../lib/gcc/msp430/4.7.3/mcpu-430x/mmpy-16/msr20/mc20/libcrt0.a(__init_stack.o)
                0x000000000000310c                __init_stack
 *(.init3)
 .init3         0x0000000000003110        0x0 /opt/compiler/mspgcc-4.7.3/bin/../lib/gcc/msp430/4.7.3/mcpu-430x/mmpy-16/msr20/mc20/libcrt0.a(__low_level_init.o)
                0x0000000000003110                __low_level_init
 *(.init4)
 .init4         0x0000000000003110       0x18 /opt/compiler/mspgcc-4.7.3/bin/../lib/gcc/msp430/4.7.3/mcpu-430x/mmpy-16/msr20/mc20/libcrt0.a(_copy_data.o)
                0x0000000000003110                __do_copy_data
 .init4         0x0000000000003128       0x16 /opt/compiler/mspgcc-4.7.3/bin/../lib/gcc/msp430/4.7.3/mcpu-430x/mmpy-16/msr20/mc20/libcrt0.a(_clear_bss.o)
                0x0000000000003128                __do_clear_bss
 *(.init5)
 *(.init6)
 *(.init7)
 *(.init8)
 *(.init9)
 .init9         0x000000000000313e      0x238 build/z1/obj/contiki-main.o
                0x000000000000313e                main
 *(.fini9)
 .fini9         0x0000000000003376        0x0 /opt/compiler/mspgcc-4.7.3/bin/../lib/gcc/msp430/4.7.3/mcpu-430x/mmpy-16/msr20/mc20/libcrt0.a(__stop_progExec__.o)
                0x0000000000003376                __stop_progExec__
 *(.fini8)
 *(.fini7)
 *(.fini6)
 *(.fini5)
 *(.fini4)
 *(.fini3)
 *(.fini2)
 *(.fini1)
 *(.fini0)
 .fini0         0x0000000000003376        0x6 /opt/compiler/mspgcc-4.7.3/bin/../lib/gcc/msp430/4.7.3/mcpu-430x/mmpy-16/msr20/mc20/libcrt0.a(_endless_loop__.o)
                0x0000000000003376                _endless_loop__
 *(.fini .fini.*)
                0x000000000000337c                . = ALIGN (0x2)
                0x000000000000337c                __ctors_start = .
 *(.ctors)
                0x000000000000337c                __ctors_end = .
                0x000000000000337c                __dtors_start = .
 *(.dtors)
                0x000000000000337c                __dtors_end = .
                0x000000000000337c                . = ALIGN (0x2)
 *(.text .text.* .gnu.linkonce.t.*)
 .text          0x000000000000337c        0x4 /opt/compiler/mspgcc-4.7.3/bin/../lib/gcc/msp430/4.7.3/mcpu-430x/mmpy-16/msr20/mc20/crt0ivtbl32.o
                0x000000000000337c                __isr_14
                0x000000000000337c                __isr_4
                0x000000000000337c                __isr_29
                0x000000000000337c                __isr_11
                0x000000000000337c                __isr_5
                0x000000000000337c                __isr_2
                0x000000000000337c                __isr_10
                0x000000000000337c                __isr_7
                0x000000000000337c                __isr_0
                0x000000000000337c                __isr_8
                0x000000000000337c                __isr_20
                0x000000000000337c                __isr_3
                0x000000000000337c                __isr_12
                0x000000000000337c                __isr_13
                0x000000000000337c                __isr_27
                0x000000000000337c                __isr_9
                0x000000000000337c                __isr_30
                0x000000000000337c                __isr_6
                0x000000000000337c                __isr_22
                0x000000000000337c                __isr_1
                0x000000000000337c                __isr_15
                0x000000000000337c                __isr_21
 .text.libgcc   0x0000000000003380       0x26 /opt/compiler/mspgcc-4.7.3/bin/../lib/gcc/msp430/4.7.3/mcpu-430x/mmpy-16/msr20/mc20/libgcc.a(_mulsi3.o)
                0x0000000000003380                __mulsi3
 .text.libgcc   0x00000000000033a6       0x26 /opt/compiler/mspgcc-4.7.3/bin/../lib/gcc/msp430/4.7.3/mcpu-430x/mmpy-16/msr20/mc20/libgcc.a(_mulsidi3.o)
                0x00000000000033a6                __mulsidi3
 .text.libgcc   0x00000000000033cc       0x58 /opt/compiler/mspgcc-4.7.3/bin/../lib/gcc/msp430/4.7.3/mcpu-430x/mmpy-16/msr20/mc20/libgcc.a(_muldi3.o)
                0x00000000000033cc                __muldi3
                0x00000000000033e6                __xabi_muldi3
 .text.libgcc   0x0000000000003424       0x22 /opt/compiler/mspgcc-4.7.3/bin/../lib/gcc/msp430/4.7.3/mcpu-430x/mmpy-16/msr20/mc20/libgcc.a(_udivmod16.o)
                0x0000000000003424                __udivhi3
                0x0000000000003424                __ext_udivmod16
                0x000000000000343e                __umodhi3
 .text.libgcc   0x0000000000003446       0x3a /opt/compiler/mspgcc-4.7.3/bin/../lib/gcc/msp430/4.7.3/mcpu-430x/mmpy-16/msr20/mc20/libgcc.a(_divmod16.o)
                0x0000000000003446                __ext_divmod16
                0x0000000000003446                __divhi3
                0x0000000000003478                __modhi3
 .text.libgcc   0x0000000000003480       0x38 /opt/compiler/mspgcc-4.7.3/bin/../lib/gcc/msp430/4.7.3/mcpu-430x/mmpy-16/msr20/mc20/libgcc.a(_udivmod32.o)
                0x0000000000003480                __udivsi3
                0x0000000000003480                __ext_udivmod32
                0x00000000000034ae                __umodsi3
 .text.libgcc   0x00000000000034b8       0x4c /opt/compiler/mspgcc-4.7.3/bin/../lib/gcc/msp430/4.7.3/mcpu-430x/mmpy-16/msr20/mc20/libgcc.a(_divmod32.o)
                0x00000000000034b8                __ext_divmod32
                0x00000000000034b8                __divsi3
                0x00000000000034fa                __modsi3
 .text.libgcc   0x0000000000003504       0x9e /opt/compiler/mspgcc-4.7.3/bin/../lib/gcc/msp430/4.7.3/mcpu-430x/mmpy-16/msr20/mc20/libgcc.a(_divmod64.o)
                0x0000000000003504                __xabi_divmod64
                0x0000000000003566                __divdi3
                0x0000000000003580                __moddi3
 .text.libgcc   0x00000000000035a2       0xbc /opt/compiler/mspgcc-4.7.3/bin/../lib/gcc/msp430/4.7.3/mcpu-430x/mmpy-16/msr20/mc20/libgcc.a(_udivmod64.o)
                0x00000000000035a2                __xabi_udivmod64
                0x00000000000035f4                __udivdi3
                0x000000000000360e                __umoddi3
                0x0000000000003630                __udivmoddi4
 .text.ldiv     0x000000000000365e       0x12 /opt/compiler/mspgcc-4.7.3/bin/../lib/gcc/msp430/4.7.3/../../../../msp430/lib/mcpu-430x/mmpy-16/msr20/mc20/libc.a(ldiv.o)
                0x000000000000365e                ldiv
 .text.crt0     0x0000000000003670        0x2 /opt/compiler/mspgcc-4.7.3/bin/../lib/gcc/msp430/4.7.3/mcpu-430x/mmpy-16/msr20/mc20/libcrt0.a(_unexpected_.o)
                0x0000000000003670                _unexpected_
 *(.near.text .near.text.*)
 .near.text.timera1
                0x0000000000003672       0xd0 build/z1/contiki-ng-z1.a(clock.o)
                0x0000000000003672                __isr_24
                0x0000000000003672                timera1
 .near.text.watchdog_interrupt
                0x0000000000003742        0x6 build/z1/contiki-ng-z1.a(watchdog.o)
                0x0000000000003742                __isr_26
                0x0000000000003742                watchdog_interrupt
 .near.text.timera0
                0x0000000000003748       0x22 build/z1/contiki-ng-z1.a(rtimer-arch.o)
                0x0000000000003748                __isr_25
                0x0000000000003748                timera0
 .near.text.cc2420_timerb1_interrupt
                0x000000000000376a       0x26 build/z1/contiki-ng-z1.a(cc2420-arch-sfd)
                0x000000000000376a                cc2420_timerb1_interrupt
                0x000000000000376a                __isr_28
 .near.text.uart0_rx_interrupt
                0x0000000000003790       0x2a build/z1/contiki-ng-z1.a(uart0.o)
                0x0000000000003790                __isr_23
                0x0000000000003790                uart0_rx_interrupt
 .near.text.port1_isr
                0x00000000000037ba       0x84 build/z1/contiki-ng-z1.a(adxl345.o)
                0x00000000000037ba                port1_isr
                0x00000000000037ba                __isr_18
 .near.text.i2c_tx_interrupt
                0x000000000000383e       0x84 build/z1/contiki-ng-z1.a(i2cmaster.o)
                0x000000000000383e                __isr_16
                0x000000000000383e                i2c_tx_interrupt
 .near.text.i2c_rx_interrupt
                0x00000000000038c2       0x14 build/z1/contiki-ng-z1.a(i2cmaster.o)
                0x00000000000038c2                i2c_rx_interrupt
                0x00000000000038c2                __isr_17
 .near.text.irq_p2
                0x00000000000038d6       0x3c build/z1/contiki-ng-z1.a(button-sensor.o)
                0x00000000000038d6                irq_p2
                0x00000000000038d6                __isr_19
 .any.text.process_thread_udp_server_process
                0x0000000000003912       0x3c udp-server.o
 .any.text.udp_rx_callback
                0x000000000000394e       0x44 udp-server.o
 .any.text.putchar
                0x0000000000003992       0x10 build/z1/contiki-ng-z1.a(uart0-putchar.o)
                0x0000000000003992                putchar
 .any.text.energest_switch
                0x00000000000039a2       0x58 build/z1/contiki-ng-z1.a(platform.o)
 .any.text.platform_init_stage_one
                0x00000000000039fa       0x12 build/z1/contiki-ng-z1.a(platform.o)
                0x00000000000039fa                platform_init_stage_one
 .any.text.platform_init_stage_two
                0x0000000000003a0c       0xba build/z1/contiki-ng-z1.a(platform.o)
                0x0000000000003a0c                platform_init_stage_two
 .any.text.platform_init_stage_three
                0x0000000000003ac6       0x64 build/z1/contiki-ng-z1.a(platform.o)
                0x0000000000003ac6                platform_init_stage_three
 .any.text.platform_idle
                0x0000000000003b2a       0x48 build/z1/contiki-ng-z1.a(platform.o)
                0x0000000000003b2a                platform_idle
 .any.text.msp430_init_dco
                0x0000000000003b72       0x28 build/z1/contiki-ng-z1.a(msp430.o)
                0x0000000000003b72                msp430_init_dco
 .any.text.splhigh_
                0x0000000000003b9a        0x8 build/z1/contiki-ng-z1.a(msp430.o)
                0x0000000000003b9a                splhigh_
 .any.text.msp430_sync_dco
                0x0000000000003ba2       0x6e build/z1/contiki-ng-z1.a(msp430.o)
                0x0000000000003ba2                msp430_sync_dco
 .any.text.msp430_cpu_init
                0x0000000000003c10       0x2e build/z1/contiki-ng-z1.a(msp430.o)
                0x0000000000003c10                msp430_cpu_init
 .any.text.clock_time
                0x0000000000003c3e       0x1a build/z1/contiki-ng-z1.a(clock.o)
                0x0000000000003c3e                clock_time
 .any.text.clock_init
                0x0000000000003c58       0x28 build/z1/contiki-ng-z1.a(clock.o)
                0x0000000000003c58                clock_init
 .any.text.clock_delay
                0x0000000000003c80        0xc build/z1/contiki-ng-z1.a(clock.o)
                0x0000000000003c80                clock_delay
 .any.text.clock_wait
                0x0000000000003c8c       0x24 build/z1/contiki-ng-z1.a(clock.o)
                0x0000000000003c8c                clock_wait
 .any.text.clock_seconds
                0x0000000000003cb0       0x1a build/z1/contiki-ng-z1.a(clock.o)
                0x0000000000003cb0                clock_seconds
 .any.text.watchdog_start
                0x0000000000003cca       0x14 build/z1/contiki-ng-z1.a(watchdog.o)
                0x0000000000003cca                watchdog_start
 .any.text.watchdog_periodic
                0x0000000000003cde       0x12 build/z1/contiki-ng-z1.a(watchdog.o)
                0x0000000000003cde                watchdog_periodic
 .any.text.watchdog_stop
                0x0000000000003cf0       0x16 build/z1/contiki-ng-z1.a(watchdog.o)
                0x0000000000003cf0                watchdog_stop
 .any.text.watchdog_init
                0x0000000000003d06       0x12 build/z1/contiki-ng-z1.a(watchdog.o)
                0x0000000000003d06                watchdog_init
 .any.text.watchdog_reboot
                0x0000000000003d18        0x6 build/z1/contiki-ng-z1.a(watchdog.o)
                0x0000000000003d18                watchdog_reboot
 .any.text.rtimer_arch_init
                0x0000000000003d1e        0xe build/z1/contiki-ng-z1.a(rtimer-arch.o)
                0x0000000000003d1e                rtimer_arch_init
 .any.text.rtimer_arch_now
                0x0000000000003d2c        0xe build/z1/contiki-ng-z1.a(rtimer-arch.o)
                0x0000000000003d2c                rtimer_arch_now
 .any.text.rtimer_arch_schedule
                0x0000000000003d3a        0x6 build/z1/contiki-ng-z1.a(rtimer-arch.o)
                0x0000000000003d3a                rtimer_arch_schedule
 .any.text.process_thread_serial_shell_process
                0x0000000000003d40       0x62 build/z1/contiki-ng-z1.a(serial-shell.o)
 .any.text.serial_shell_output
                0x0000000000003da2        0xe build/z1/contiki-ng-z1.a(serial-shell.o)
 .any.text.serial_shell_init
                0x0000000000003db0        0xc build/z1/contiki-ng-z1.a(serial-shell.o)
                0x0000000000003db0                serial_shell_init
 .any.text.child_added
                0x0000000000003dbc        0x2 build/z1/contiki-ng-z1.a(orchestra-rule-)
 .any.text.child_removed
                0x0000000000003dbe        0x2 build/z1/contiki-ng-z1.a(orchestra-rule-)
 .any.text.new_time_source
                0x0000000000003dc0        0x2 build/z1/contiki-ng-z1.a(orchestra-rule-)
 .any.text.select_packet
                0x0000000000003dc2       0x76 build/z1/contiki-ng-z1.a(orchestra-rule-)
 .any.text.init
                0x0000000000003e38       0x54 build/z1/contiki-ng-z1.a(orchestra-rule-)
 .any.text.select_packet
                0x0000000000003e8c       0x16 build/z1/contiki-ng-z1.a(orchestra-rule-)
 .any.text.init
                0x0000000000003ea2       0x22 build/z1/contiki-ng-z1.a(orchestra-rule-)
 .any.text.orchestra_packet_received
                0x0000000000003ec4        0x2 build/z1/contiki-ng-z1.a(orchestra.o)
 .any.text.orchestra_packet_sent
                0x0000000000003ec6       0x4e build/z1/contiki-ng-z1.a(orchestra.o)
 .any.text.orchestra_callback_packet_ready
                0x0000000000003f14       0x6c build/z1/contiki-ng-z1.a(orchestra.o)
                0x0000000000003f14                orchestra_callback_packet_ready
 .any.text.orchestra_callback_new_time_source
                0x0000000000003f80       0x2e build/z1/contiki-ng-z1.a(orchestra.o)
                0x0000000000003f80                orchestra_callback_new_time_source
 .any.text.orchestra_init
                0x0000000000003fae       0x54 build/z1/contiki-ng-z1.a(orchestra.o)
                0x0000000000003fae                orchestra_init
 .any.text.init
                0x0000000000004002       0x3c build/z1/contiki-ng-z1.a(orchestra-rule-)
 .any.text.select_packet
                0x000000000000403e       0x3c build/z1/contiki-ng-z1.a(orchestra-rule-)
 .any.text.new_time_source
                0x000000000000407a       0xa0 build/z1/contiki-ng-z1.a(orchestra-rule-)
 .any.text.autostart_start
                0x000000000000411a       0x16 build/z1/contiki-ng-z1.a(autostart.o)
                0x000000000000411a                autostart_start
 .any.text.process_thread_ctimer_process
                0x0000000000004130       0xa0 build/z1/contiki-ng-z1.a(ctimer.o)
 .any.text.ctimer_init
                0x00000000000041d0       0x18 build/z1/contiki-ng-z1.a(ctimer.o)
                0x00000000000041d0                ctimer_init
 .any.text.ctimer_set_with_process
                0x00000000000041e8       0x4a build/z1/contiki-ng-z1.a(ctimer.o)
                0x00000000000041e8                ctimer_set_with_process
 .any.text.ctimer_set
                0x0000000000004232       0x10 build/z1/contiki-ng-z1.a(ctimer.o)
                0x0000000000004232                ctimer_set
 .any.text.ctimer_reset
                0x0000000000004242       0x2c build/z1/contiki-ng-z1.a(ctimer.o)
                0x0000000000004242                ctimer_reset
 .any.text.ctimer_stop
                0x000000000000426e       0x28 build/z1/contiki-ng-z1.a(ctimer.o)
                0x000000000000426e                ctimer_stop
 .any.text.ctimer_expired
                0x0000000000004296       0x30 build/z1/contiki-ng-z1.a(ctimer.o)
                0x0000000000004296                ctimer_expired
 .any.text.energest_init
                0x00000000000042c6        0x2 build/z1/contiki-ng-z1.a(energest.o)
                0x00000000000042c6                energest_init
 .any.text.energest_flush
                0x00000000000042c8       0x44 build/z1/contiki-ng-z1.a(energest.o)
                0x00000000000042c8                energest_flush
 .any.text.update_time
                0x000000000000430c       0x70 build/z1/contiki-ng-z1.a(etimer.o)
 .any.text.etimer_request_poll
                0x000000000000437c        0xa build/z1/contiki-ng-z1.a(etimer.o)
                0x000000000000437c                etimer_request_poll
 .any.text.process_thread_etimer_process
                0x0000000000004386       0xc4 build/z1/contiki-ng-z1.a(etimer.o)
 .any.text.add_timer
                0x000000000000444a       0x40 build/z1/contiki-ng-z1.a(etimer.o)
 .any.text.etimer_set
                0x000000000000448a       0x12 build/z1/contiki-ng-z1.a(etimer.o)
                0x000000000000448a                etimer_set
 .any.text.etimer_reset
                0x000000000000449c       0x12 build/z1/contiki-ng-z1.a(etimer.o)
                0x000000000000449c                etimer_reset
 .any.text.etimer_expired
                0x00000000000044ae        0xe build/z1/contiki-ng-z1.a(etimer.o)
                0x00000000000044ae                etimer_expired
 .any.text.etimer_pending
                0x00000000000044bc        0xc build/z1/contiki-ng-z1.a(etimer.o)
                0x00000000000044bc                etimer_pending
 .any.text.etimer_next_expiration_time
                0x00000000000044c8       0x16 build/z1/contiki-ng-z1.a(etimer.o)
                0x00000000000044c8                etimer_next_expiration_time
 .any.text.etimer_stop
                0x00000000000044de       0x3e build/z1/contiki-ng-z1.a(etimer.o)
                0x00000000000044de                etimer_stop
 .any.text.log_6addr
                0x000000000000451c       0x32 build/z1/contiki-ng-z1.a(log.o)
                0x000000000000451c                log_6addr
 .any.text.log_lladdr
                0x000000000000454e       0x40 build/z1/contiki-ng-z1.a(log.o)
                0x000000000000454e                log_lladdr
 .any.text.log_set_level
                0x000000000000458e       0x4c build/z1/contiki-ng-z1.a(log.o)
                0x000000000000458e                log_set_level
 .any.text.log_get_level
                0x00000000000045da       0x42 build/z1/contiki-ng-z1.a(log.o)
                0x00000000000045da                log_get_level
 .any.text.log_level_to_str
                0x000000000000461c       0x14 build/z1/contiki-ng-z1.a(log.o)
                0x000000000000461c                log_level_to_str
 .any.text.rtimer_init
                0x0000000000004630        0x6 build/z1/contiki-ng-z1.a(rtimer.o)
                0x0000000000004630                rtimer_init
 .any.text.rtimer_set
                0x0000000000004636       0x24 build/z1/contiki-ng-z1.a(rtimer.o)
                0x0000000000004636                rtimer_set
 .any.text.rtimer_run_next
                0x000000000000465a       0x26 build/z1/contiki-ng-z1.a(rtimer.o)
                0x000000000000465a                rtimer_run_next
 .any.text.node_id_init
                0x0000000000004680       0x14 build/z1/contiki-ng-z1.a(node-id.o)
                0x0000000000004680                node_id_init
 .any.text.call_process
                0x0000000000004694       0x40 build/z1/contiki-ng-z1.a(process.o)
 .any.text.exit_process
                0x00000000000046d4       0x88 build/z1/contiki-ng-z1.a(process.o)
 .any.text.do_poll
                0x000000000000475c       0x30 build/z1/contiki-ng-z1.a(process.o)
 .any.text.process_alloc_event
                0x000000000000478c        0xe build/z1/contiki-ng-z1.a(process.o)
                0x000000000000478c                process_alloc_event
 .any.text.process_init
                0x000000000000479a       0x1c build/z1/contiki-ng-z1.a(process.o)
                0x000000000000479a                process_init
 .any.text.process_run
                0x00000000000047b6       0x8c build/z1/contiki-ng-z1.a(process.o)
                0x00000000000047b6                process_run
 .any.text.process_nevents
                0x0000000000004842        0xe build/z1/contiki-ng-z1.a(process.o)
                0x0000000000004842                process_nevents
 .any.text.process_post
                0x0000000000004850       0x4a build/z1/contiki-ng-z1.a(process.o)
                0x0000000000004850                process_post
 .any.text.process_post_synch
                0x000000000000489a       0x12 build/z1/contiki-ng-z1.a(process.o)
                0x000000000000489a                process_post_synch
 .any.text.process_start
                0x00000000000048ac       0x36 build/z1/contiki-ng-z1.a(process.o)
                0x00000000000048ac                process_start
 .any.text.process_poll
                0x00000000000048e2       0x18 build/z1/contiki-ng-z1.a(process.o)
                0x00000000000048e2                process_poll
 .any.text.timer_set
                0x00000000000048fa       0x1c build/z1/contiki-ng-z1.a(timer.o)
                0x00000000000048fa                timer_set
 .any.text.timer_expired
                0x0000000000004916       0x2a build/z1/contiki-ng-z1.a(timer.o)
                0x0000000000004916                timer_expired
 .any.text.timer_reset
                0x0000000000004940       0x1c build/z1/contiki-ng-z1.a(timer.o)
                0x0000000000004940                timer_reset
 .any.text.stack_check_init
                0x000000000000495c       0x2e build/z1/contiki-ng-z1.a(stack-check.o)
                0x000000000000495c                stack_check_init
 .any.text.stack_check_get_usage
                0x000000000000498a       0x54 build/z1/contiki-ng-z1.a(stack-check.o)
                0x000000000000498a                stack_check_get_usage
 .any.text.process_thread_stack_check_process
                0x00000000000049de       0xd2 build/z1/contiki-ng-z1.a(stack-check.o)
 .any.text.list_init
                0x0000000000004ab0        0x6 build/z1/contiki-ng-z1.a(list.o)
                0x0000000000004ab0                list_init
 .any.text.list_head
                0x0000000000004ab6        0x4 build/z1/contiki-ng-z1.a(list.o)
                0x0000000000004ab6                list_head
 .any.text.list_tail
                0x0000000000004aba       0x12 build/z1/contiki-ng-z1.a(list.o)
                0x0000000000004aba                list_tail
 .any.text.list_remove
                0x0000000000004acc       0x34 build/z1/contiki-ng-z1.a(list.o)
                0x0000000000004acc                list_remove
 .any.text.list_push
                0x0000000000004b00       0x16 build/z1/contiki-ng-z1.a(list.o)
                0x0000000000004b00                list_push
 .any.text.list_add
                0x0000000000004b16       0x26 build/z1/contiki-ng-z1.a(list.o)
                0x0000000000004b16                list_add
 .any.text.list_item_next
                0x0000000000004b3c        0xc build/z1/contiki-ng-z1.a(list.o)
                0x0000000000004b3c                list_item_next
 .any.text.random_init
                0x0000000000004b48        0x6 build/z1/contiki-ng-z1.a(random.o)
                0x0000000000004b48                random_init
 .any.text.random_rand
                0x0000000000004b4e        0x6 build/z1/contiki-ng-z1.a(random.o)
                0x0000000000004b4e                random_rand
 .any.text.queuebuf_init
                0x0000000000004b54       0x12 build/z1/contiki-ng-z1.a(queuebuf.o)
                0x0000000000004b54                queuebuf_init
 .any.text.queuebuf_new_from_packetbuf
                0x0000000000004b66       0x4e build/z1/contiki-ng-z1.a(queuebuf.o)
                0x0000000000004b66                queuebuf_new_from_packetbuf
 .any.text.queuebuf_free
                0x0000000000004bb4       0x2a build/z1/contiki-ng-z1.a(queuebuf.o)
                0x0000000000004bb4                queuebuf_free
 .any.text.queuebuf_to_packetbuf
                0x0000000000004bde       0x32 build/z1/contiki-ng-z1.a(queuebuf.o)
                0x0000000000004bde                queuebuf_to_packetbuf
 .any.text.queuebuf_dataptr
                0x0000000000004c10       0x1c build/z1/contiki-ng-z1.a(queuebuf.o)
                0x0000000000004c10                queuebuf_dataptr
 .any.text.queuebuf_datalen
                0x0000000000004c2c        0x8 build/z1/contiki-ng-z1.a(queuebuf.o)
                0x0000000000004c2c                queuebuf_datalen
 .any.text.queuebuf_attr
                0x0000000000004c34        0xe build/z1/contiki-ng-z1.a(queuebuf.o)
                0x0000000000004c34                queuebuf_attr
 .any.text.packetbuf_hdrreduce
                0x0000000000004c42       0x1a build/z1/contiki-ng-z1.a(packetbuf.o)
                0x0000000000004c42                packetbuf_hdrreduce
 .any.text.packetbuf_set_datalen
                0x0000000000004c5c        0x6 build/z1/contiki-ng-z1.a(packetbuf.o)
                0x0000000000004c5c                packetbuf_set_datalen
 .any.text.packetbuf_hdrptr
                0x0000000000004c62        0x6 build/z1/contiki-ng-z1.a(packetbuf.o)
                0x0000000000004c62                packetbuf_hdrptr
 .any.text.packetbuf_datalen
                0x0000000000004c68        0x6 build/z1/contiki-ng-z1.a(packetbuf.o)
                0x0000000000004c68                packetbuf_datalen
 .any.text.packetbuf_hdrlen
                0x0000000000004c6e        0xa build/z1/contiki-ng-z1.a(packetbuf.o)
                0x0000000000004c6e                packetbuf_hdrlen
 .any.text.packetbuf_dataptr
                0x0000000000004c78        0xc build/z1/contiki-ng-z1.a(packetbuf.o)
                0x0000000000004c78                packetbuf_dataptr
 .any.text.packetbuf_copyto
                0x0000000000004c84       0x3a build/z1/contiki-ng-z1.a(packetbuf.o)
                0x0000000000004c84                packetbuf_copyto
 .any.text.packetbuf_totlen
                0x0000000000004cbe        0xc build/z1/contiki-ng-z1.a(packetbuf.o)
                0x0000000000004cbe                packetbuf_totlen
 .any.text.packetbuf_hdralloc
                0x0000000000004cca       0x3c build/z1/contiki-ng-z1.a(packetbuf.o)
                0x0000000000004cca                packetbuf_hdralloc
 .any.text.packetbuf_remaininglen
                0x0000000000004d06        0xe build/z1/contiki-ng-z1.a(packetbuf.o)
                0x0000000000004d06                packetbuf_remaininglen
 .any.text.packetbuf_attr_clear
                0x0000000000004d14       0x28 build/z1/contiki-ng-z1.a(packetbuf.o)
                0x0000000000004d14                packetbuf_attr_clear
 .any.text.packetbuf_clear
                0x0000000000004d3c       0x12 build/z1/contiki-ng-z1.a(packetbuf.o)
                0x0000000000004d3c                packetbuf_clear
 .any.text.packetbuf_copyfrom
                0x0000000000004d4e       0x2a build/z1/contiki-ng-z1.a(packetbuf.o)
                0x0000000000004d4e                packetbuf_copyfrom
 .any.text.packetbuf_attr_copyto
                0x0000000000004d78       0x22 build/z1/contiki-ng-z1.a(packetbuf.o)
                0x0000000000004d78                packetbuf_attr_copyto
 .any.text.packetbuf_attr_copyfrom
                0x0000000000004d9a       0x24 build/z1/contiki-ng-z1.a(packetbuf.o)
                0x0000000000004d9a                packetbuf_attr_copyfrom
 .any.text.packetbuf_set_attr
                0x0000000000004dbe        0xc build/z1/contiki-ng-z1.a(packetbuf.o)
                0x0000000000004dbe                packetbuf_set_attr
 .any.text.packetbuf_attr
                0x0000000000004dca        0xa build/z1/contiki-ng-z1.a(packetbuf.o)
                0x0000000000004dca                packetbuf_attr
 .any.text.packetbuf_set_addr
                0x0000000000004dd4       0x14 build/z1/contiki-ng-z1.a(packetbuf.o)
                0x0000000000004dd4                packetbuf_set_addr
 .any.text.packetbuf_addr
                0x0000000000004de8        0xe build/z1/contiki-ng-z1.a(packetbuf.o)
                0x0000000000004de8                packetbuf_addr
 .any.text.packetbuf_holds_broadcast
                0x0000000000004df6        0xe build/z1/contiki-ng-z1.a(packetbuf.o)
                0x0000000000004df6                packetbuf_holds_broadcast
 .any.text.netstack_process_ip_callback
                0x0000000000004e04       0x46 build/z1/contiki-ng-z1.a(netstack.o)
                0x0000000000004e04                netstack_process_ip_callback
 .any.text.netstack_init
                0x0000000000004e4a        0xe build/z1/contiki-ng-z1.a(netstack.o)
                0x0000000000004e4a                netstack_init
 .any.text.linkaddr_copy
                0x0000000000004e58        0x8 build/z1/contiki-ng-z1.a(linkaddr.o)
                0x0000000000004e58                linkaddr_copy
 .any.text.linkaddr_cmp
                0x0000000000004e60       0x12 build/z1/contiki-ng-z1.a(linkaddr.o)
                0x0000000000004e60                linkaddr_cmp
 .any.text.linkaddr_set_node_addr
                0x0000000000004e72        0xc build/z1/contiki-ng-z1.a(linkaddr.o)
                0x0000000000004e72                linkaddr_set_node_addr
 .any.text.turn_off
                0x0000000000004e7e        0x8 build/z1/contiki-ng-z1.a(tsch.o)
 .any.text.max_payload
                0x0000000000004e86       0x36 build/z1/contiki-ng-z1.a(tsch.o)
 .any.text.send_packet
                0x0000000000004ebc       0xa8 build/z1/contiki-ng-z1.a(tsch.o)
 .any.text.tsch_reset
                0x0000000000004f64       0xa2 build/z1/contiki-ng-z1.a(tsch.o)
 .any.text.tsch_init
                0x0000000000005006       0xae build/z1/contiki-ng-z1.a(tsch.o)
 .any.text.process_thread_tsch_send_eb_process
                0x00000000000050b4      0x162 build/z1/contiki-ng-z1.a(tsch.o)
 .any.text.turn_on
                0x0000000000005216       0x36 build/z1/contiki-ng-z1.a(tsch.o)
 .any.text.packet_input
                0x000000000000524c       0x26 build/z1/contiki-ng-z1.a(tsch.o)
 .any.text.keepalive_send
                0x0000000000005272       0x38 build/z1/contiki-ng-z1.a(tsch.o)
 .any.text.convert_slots_to_rate
                0x00000000000052aa       0x3a build/z1/contiki-ng-z1.a(tsch.o)
                0x00000000000052aa                convert_slots_to_rate
 .any.text.tsch_set_coordinator
                0x00000000000052e4       0x1a build/z1/contiki-ng-z1.a(tsch.o)
                0x00000000000052e4                tsch_set_coordinator
 .any.text.tsch_set_pan_secured
                0x00000000000052fe        0x6 build/z1/contiki-ng-z1.a(tsch.o)
                0x00000000000052fe                tsch_set_pan_secured
 .any.text.tsch_set_join_priority
                0x0000000000005304        0x6 build/z1/contiki-ng-z1.a(tsch.o)
                0x0000000000005304                tsch_set_join_priority
 .any.text.tsch_set_eb_period
                0x000000000000530a       0x1a build/z1/contiki-ng-z1.a(tsch.o)
                0x000000000000530a                tsch_set_eb_period
 .any.text.tsch_schedule_keepalive
                0x0000000000005324       0x20 build/z1/contiki-ng-z1.a(tsch.o)
                0x0000000000005324                tsch_schedule_keepalive
 .any.text.tsch_set_ka_timeout
                0x0000000000005344       0x10 build/z1/contiki-ng-z1.a(tsch.o)
                0x0000000000005344                tsch_set_ka_timeout
 .any.text.find_shared_timeslot_children
                0x0000000000005354       0x56 build/z1/contiki-ng-z1.a(tsch.o)
                0x0000000000005354                find_shared_timeslot_children
 .any.text.tsch_disassociate
                0x00000000000053aa       0x18 build/z1/contiki-ng-z1.a(tsch.o)
                0x00000000000053aa                tsch_disassociate
 .any.text.process_thread_tsch_pending_events_process
                0x00000000000053c2      0x31c build/z1/contiki-ng-z1.a(tsch.o)
 .any.text.keepalive_packet_sent
                0x00000000000056de       0x86 build/z1/contiki-ng-z1.a(tsch.o)
 .any.text.tsch_scan
                0x0000000000005764      0x362 build/z1/contiki-ng-z1.a(tsch.o)
                0x0000000000005764                tsch_scan
 .any.text.process_thread_tsch_process
                0x0000000000005ac6       0xae build/z1/contiki-ng-z1.a(tsch.o)
 .any.text.tsch_queue_get_nbr
                0x0000000000005b74       0x3c build/z1/contiki-ng-z1.a(tsch-queue.o)
                0x0000000000005b74                tsch_queue_get_nbr
 .any.text.tsch_queue_add_nbr
                0x0000000000005bb0       0x88 build/z1/contiki-ng-z1.a(tsch-queue.o)
                0x0000000000005bb0                tsch_queue_add_nbr
 .any.text.tsch_queue_get_time_source
                0x0000000000005c38       0x28 build/z1/contiki-ng-z1.a(tsch-queue.o)
                0x0000000000005c38                tsch_queue_get_time_source
 .any.text.tsch_queue_update_time_source
                0x0000000000005c60       0x6c build/z1/contiki-ng-z1.a(tsch-queue.o)
                0x0000000000005c60                tsch_queue_update_time_source
 .any.text.tsch_queue_add_packet
                0x0000000000005ccc       0x94 build/z1/contiki-ng-z1.a(tsch-queue.o)
                0x0000000000005ccc                tsch_queue_add_packet
 .any.text.tsch_queue_packet_count
                0x0000000000005d60       0x26 build/z1/contiki-ng-z1.a(tsch-queue.o)
                0x0000000000005d60                tsch_queue_packet_count
 .any.text.tsch_queue_remove_packet_from_queue
                0x0000000000005d86       0x32 build/z1/contiki-ng-z1.a(tsch-queue.o)
                0x0000000000005d86                tsch_queue_remove_packet_from_queue
 .any.text.tsch_queue_free_packet
                0x0000000000005db8       0x1c build/z1/contiki-ng-z1.a(tsch-queue.o)
                0x0000000000005db8                tsch_queue_free_packet
 .any.text.tsch_queue_is_empty
                0x0000000000005dd4       0x2c build/z1/contiki-ng-z1.a(tsch-queue.o)
                0x0000000000005dd4                tsch_queue_is_empty
 .any.text.tsch_queue_flush_nbr_queue
                0x0000000000005e00       0x3c build/z1/contiki-ng-z1.a(tsch-queue.o)
 .any.text.tsch_queue_reset
                0x0000000000005e3c       0x36 build/z1/contiki-ng-z1.a(tsch-queue.o)
                0x0000000000005e3c                tsch_queue_reset
 .any.text.tsch_queue_free_unused_neighbors
                0x0000000000005e72       0x64 build/z1/contiki-ng-z1.a(tsch-queue.o)
                0x0000000000005e72                tsch_queue_free_unused_neighbors
 .any.text.tsch_queue_get_packet_for_nbr
                0x0000000000005ed6       0x88 build/z1/contiki-ng-z1.a(tsch-queue.o)
                0x0000000000005ed6                tsch_queue_get_packet_for_nbr
 .any.text.tsch_queue_get_unicast_packet_for_any
                0x0000000000005f5e       0x50 build/z1/contiki-ng-z1.a(tsch-queue.o)
                0x0000000000005f5e                tsch_queue_get_unicast_packet_for_any
 .any.text.tsch_queue_backoff_inc
                0x0000000000005fae       0x44 build/z1/contiki-ng-z1.a(tsch-queue.o)
                0x0000000000005fae                tsch_queue_backoff_inc
 .any.text.tsch_queue_packet_sent
                0x0000000000005ff2       0x6e build/z1/contiki-ng-z1.a(tsch-queue.o)
                0x0000000000005ff2                tsch_queue_packet_sent
 .any.text.tsch_queue_update_all_backoff_windows
                0x0000000000006060       0x56 build/z1/contiki-ng-z1.a(tsch-queue.o)
                0x0000000000006060                tsch_queue_update_all_backoff_windows
 .any.text.tsch_queue_init
                0x00000000000060b6       0x36 build/z1/contiki-ng-z1.a(tsch-queue.o)
                0x00000000000060b6                tsch_queue_init
 .any.text.tsch_schedule_get_slotframe_by_handle
                0x00000000000060ec       0x2e build/z1/contiki-ng-z1.a(tsch-schedule.o)
                0x00000000000060ec                tsch_schedule_get_slotframe_by_handle
 .any.text.tsch_schedule_add_slotframe
                0x000000000000611a       0x74 build/z1/contiki-ng-z1.a(tsch-schedule.o)
                0x000000000000611a                tsch_schedule_add_slotframe
 .any.text.tsch_schedule_remove_link
                0x000000000000618e       0x76 build/z1/contiki-ng-z1.a(tsch-schedule.o)
                0x000000000000618e                tsch_schedule_remove_link
 .any.text.tsch_schedule_get_link_by_just_timeslot
                0x0000000000006204       0x34 build/z1/contiki-ng-z1.a(tsch-schedule.o)
                0x0000000000006204                tsch_schedule_get_link_by_just_timeslot
 .any.text.tsch_schedule_get_link_by_timeslot
                0x0000000000006238       0x44 build/z1/contiki-ng-z1.a(tsch-schedule.o)
                0x0000000000006238                tsch_schedule_get_link_by_timeslot
 .any.text.tsch_schedule_remove_link_by_timeslot
                0x000000000000627c       0x14 build/z1/contiki-ng-z1.a(tsch-schedule.o)
                0x000000000000627c                tsch_schedule_remove_link_by_timeslot
 .any.text.dtsf_check_TX_timeslot
                0x0000000000006290       0x54 build/z1/contiki-ng-z1.a(tsch-schedule.o)
                0x0000000000006290                dtsf_check_TX_timeslot
 .any.text.tsch_schedule_add_link
                0x00000000000062e4      0x23a build/z1/contiki-ng-z1.a(tsch-schedule.o)
                0x00000000000062e4                tsch_schedule_add_link
 .any.text.tsch_schedule_get_next_active_link
                0x000000000000651e      0x19e build/z1/contiki-ng-z1.a(tsch-schedule.o)
                0x000000000000651e                tsch_schedule_get_next_active_link
 .any.text.tsch_schedule_init
                0x00000000000066bc       0x2c build/z1/contiki-ng-z1.a(tsch-schedule.o)
                0x00000000000066bc                tsch_schedule_init
 .any.text.tsch_schedule_slotframe_head
                0x00000000000066e8        0xa build/z1/contiki-ng-z1.a(tsch-schedule.o)
                0x00000000000066e8                tsch_schedule_slotframe_head
 .any.text.tsch_schedule_slotframe_next
                0x00000000000066f2        0x6 build/z1/contiki-ng-z1.a(tsch-schedule.o)
                0x00000000000066f2                tsch_schedule_slotframe_next
 .any.text.tsch_radio_on.part.0
                0x00000000000066f8        0x6 build/z1/contiki-ng-z1.a(tsch-slot-opera)
 .any.text.tsch_radio_off.part.1
                0x00000000000066fe        0x6 build/z1/contiki-ng-z1.a(tsch-slot-opera)
 .any.text.tsch_schedule_slot_operation.isra.2
                0x0000000000006704       0x5e build/z1/contiki-ng-z1.a(tsch-slot-opera)
 .any.text.get_packet_and_neighbor_for_link.constprop.5
                0x0000000000006762       0x68 build/z1/contiki-ng-z1.a(tsch-slot-opera)
 .any.text.tsch_tx_slot.constprop.4
                0x00000000000067ca      0x45c build/z1/contiki-ng-z1.a(tsch-slot-opera)
 .any.text.tsch_is_locked
                0x0000000000006c26        0x6 build/z1/contiki-ng-z1.a(tsch-slot-opera)
                0x0000000000006c26                tsch_is_locked
 .any.text.tsch_get_lock
                0x0000000000006c2c       0x42 build/z1/contiki-ng-z1.a(tsch-slot-opera)
                0x0000000000006c2c                tsch_get_lock
 .any.text.tsch_release_lock
                0x0000000000006c6e        0x6 build/z1/contiki-ng-z1.a(tsch-slot-opera)
                0x0000000000006c6e                tsch_release_lock
 .any.text.tsch_calculate_channel
                0x0000000000006c74       0x68 build/z1/contiki-ng-z1.a(tsch-slot-opera)
                0x0000000000006c74                tsch_calculate_channel
 .any.text.tsch_slot_operation
                0x0000000000006cdc      0x6b0 build/z1/contiki-ng-z1.a(tsch-slot-opera)
 .any.text.tsch_get_network_uptime_ticks
                0x000000000000738c       0xa0 build/z1/contiki-ng-z1.a(tsch-slot-opera)
                0x000000000000738c                tsch_get_network_uptime_ticks
 .any.text.tsch_slot_operation_start
                0x000000000000742c       0x86 build/z1/contiki-ng-z1.a(tsch-slot-opera)
                0x000000000000742c                tsch_slot_operation_start
 .any.text.tsch_slot_operation_sync
                0x00000000000074b2       0x42 build/z1/contiki-ng-z1.a(tsch-slot-opera)
                0x00000000000074b2                tsch_slot_operation_sync
 .any.text.tsch_packet_eackbuf_attr
                0x00000000000074f4        0xa build/z1/contiki-ng-z1.a(tsch-packet.o)
                0x00000000000074f4                tsch_packet_eackbuf_attr
 .any.text.tsch_packet_create_eack
                0x00000000000074fe       0xb6 build/z1/contiki-ng-z1.a(tsch-packet.o)
                0x00000000000074fe                tsch_packet_create_eack
 .any.text.tsch_packet_parse_eack
                0x00000000000075b4       0xb6 build/z1/contiki-ng-z1.a(tsch-packet.o)
                0x00000000000075b4                tsch_packet_parse_eack
 .any.text.tsch_packet_create_eb
                0x000000000000766a      0x19a build/z1/contiki-ng-z1.a(tsch-packet.o)
                0x000000000000766a                tsch_packet_create_eb
 .any.text.tsch_packet_update_eb
                0x0000000000007804       0x42 build/z1/contiki-ng-z1.a(tsch-packet.o)
                0x0000000000007804                tsch_packet_update_eb
 .any.text.tsch_packet_parse_eb
                0x0000000000007846       0x7c build/z1/contiki-ng-z1.a(tsch-packet.o)
                0x0000000000007846                tsch_packet_parse_eb
 .any.text.tsch_packet_set_frame_pending
                0x00000000000078c2        0x8 build/z1/contiki-ng-z1.a(tsch-packet.o)
                0x00000000000078c2                tsch_packet_set_frame_pending
 .any.text.tsch_packet_get_frame_pending
                0x00000000000078ca        0x8 build/z1/contiki-ng-z1.a(tsch-packet.o)
                0x00000000000078ca                tsch_packet_get_frame_pending
 .any.text.tsch_security_set_packetbuf_attr
                0x00000000000078d2        0x2 build/z1/contiki-ng-z1.a(tsch-security.o)
                0x00000000000078d2                tsch_security_set_packetbuf_attr
 .any.text.tsch_rpl_callback_ka_sent
                0x00000000000078d4       0x1a build/z1/contiki-ng-z1.a(tsch-rpl.o)
                0x00000000000078d4                tsch_rpl_callback_ka_sent
 .any.text.tsch_rpl_callback_joining_network
                0x00000000000078ee        0x2 build/z1/contiki-ng-z1.a(tsch-rpl.o)
                0x00000000000078ee                tsch_rpl_callback_joining_network
 .any.text.tsch_rpl_callback_leaving_network
                0x00000000000078f0        0xe build/z1/contiki-ng-z1.a(tsch-rpl.o)
                0x00000000000078f0                tsch_rpl_callback_leaving_network
 .any.text.tsch_rpl_callback_new_dio_interval
                0x00000000000078fe       0x46 build/z1/contiki-ng-z1.a(tsch-rpl.o)
                0x00000000000078fe                tsch_rpl_callback_new_dio_interval
 .any.text.tsch_rpl_callback_parent_switch
                0x0000000000007944       0x1a build/z1/contiki-ng-z1.a(tsch-rpl.o)
                0x0000000000007944                tsch_rpl_callback_parent_switch
 .any.text.tsch_rpl_check_dodag_joined
                0x000000000000795e        0x6 build/z1/contiki-ng-z1.a(tsch-rpl.o)
                0x000000000000795e                tsch_rpl_check_dodag_joined
 .any.text.tsch_adaptive_timesync_get_drift_ppm
                0x0000000000007964       0x22 build/z1/contiki-ng-z1.a(tsch-adaptive-t)
                0x0000000000007964                tsch_adaptive_timesync_get_drift_ppm
 .any.text.tsch_timesync_adaptive_compensate
                0x0000000000007986      0x20c build/z1/contiki-ng-z1.a(tsch-adaptive-t)
                0x0000000000007986                tsch_timesync_adaptive_compensate
 .any.text.tsch_adaptive_timesync_reset
                0x0000000000007b92       0x22 build/z1/contiki-ng-z1.a(tsch-adaptive-t)
                0x0000000000007b92                tsch_adaptive_timesync_reset
 .any.text.tsch_timesync_update
                0x0000000000007bb4      0x184 build/z1/contiki-ng-z1.a(tsch-adaptive-t)
                0x0000000000007bb4                tsch_timesync_update
 .any.text.uip_ds6_default_prefix
                0x0000000000007d38        0x6 build/z1/contiki-ng-z1.a(uip-ds6.o)
                0x0000000000007d38                uip_ds6_default_prefix
 .any.text.uip_ds6_list_loop
                0x0000000000007d3e       0x72 build/z1/contiki-ng-z1.a(uip-ds6.o)
                0x0000000000007d3e                uip_ds6_list_loop
 .any.text.uip_ds6_prefix_add
                0x0000000000007db0       0x70 build/z1/contiki-ng-z1.a(uip-ds6.o)
                0x0000000000007db0                uip_ds6_prefix_add
 .any.text.uip_ds6_is_addr_onlink
                0x0000000000007e20       0x42 build/z1/contiki-ng-z1.a(uip-ds6.o)
                0x0000000000007e20                uip_ds6_is_addr_onlink
 .any.text.uip_ds6_addr_lookup
                0x0000000000007e62       0x2a build/z1/contiki-ng-z1.a(uip-ds6.o)
                0x0000000000007e62                uip_ds6_addr_lookup
 .any.text.uip_ds6_get_link_local
                0x0000000000007e8c       0x3e build/z1/contiki-ng-z1.a(uip-ds6.o)
                0x0000000000007e8c                uip_ds6_get_link_local
 .any.text.uip_ds6_maddr_add
                0x0000000000007eca       0x48 build/z1/contiki-ng-z1.a(uip-ds6.o)
                0x0000000000007eca                uip_ds6_maddr_add
 .any.text.uip_ds6_addr_add
                0x0000000000007f12       0xb4 build/z1/contiki-ng-z1.a(uip-ds6.o)
                0x0000000000007f12                uip_ds6_addr_add
 .any.text.uip_ds6_maddr_rm
                0x0000000000007fc6        0xa build/z1/contiki-ng-z1.a(uip-ds6.o)
                0x0000000000007fc6                uip_ds6_maddr_rm
 .any.text.uip_ds6_maddr_lookup
                0x0000000000007fd0       0x2a build/z1/contiki-ng-z1.a(uip-ds6.o)
                0x0000000000007fd0                uip_ds6_maddr_lookup
 .any.text.uip_ds6_addr_rm
                0x0000000000007ffa       0x54 build/z1/contiki-ng-z1.a(uip-ds6.o)
                0x0000000000007ffa                uip_ds6_addr_rm
 .any.text.uip_ds6_periodic
                0x000000000000804e       0x46 build/z1/contiki-ng-z1.a(uip-ds6.o)
                0x000000000000804e                uip_ds6_periodic
 .any.text.uip_ds6_set_addr_iid
                0x0000000000008094       0x14 build/z1/contiki-ng-z1.a(uip-ds6.o)
                0x0000000000008094                uip_ds6_set_addr_iid
 .any.text.uip_ds6_set_lladdr_from_iid
                0x00000000000080a8       0x14 build/z1/contiki-ng-z1.a(uip-ds6.o)
                0x00000000000080a8                uip_ds6_set_lladdr_from_iid
 .any.text.get_match_length
                0x00000000000080bc       0x3c build/z1/contiki-ng-z1.a(uip-ds6.o)
                0x00000000000080bc                get_match_length
 .any.text.uip_ds6_select_src
                0x00000000000080f8       0x9a build/z1/contiki-ng-z1.a(uip-ds6.o)
                0x00000000000080f8                uip_ds6_select_src
 .any.text.uip_ds6_compute_reachable_time
                0x0000000000008192       0x36 build/z1/contiki-ng-z1.a(uip-ds6.o)
                0x0000000000008192                uip_ds6_compute_reachable_time
 .any.text.uip_ds6_init
                0x00000000000081c8      0x164 build/z1/contiki-ng-z1.a(uip-ds6.o)
                0x00000000000081c8                uip_ds6_init
 .any.text.uiplib_ip6addrconv
                0x000000000000832c       0xfa build/z1/contiki-ng-z1.a(uiplib.o)
                0x000000000000832c                uiplib_ip6addrconv
 .any.text.uiplib_ipaddr_snprint
                0x0000000000008426      0x114 build/z1/contiki-ng-z1.a(uiplib.o)
                0x0000000000008426                uiplib_ipaddr_snprint
 .any.text.uip_ds6_route_init
                0x000000000000853a       0x12 build/z1/contiki-ng-z1.a(uip-ds6-route.o)
                0x000000000000853a                uip_ds6_route_init
 .any.text.uip_ds6_route_nexthop
                0x000000000000854c        0x4 build/z1/contiki-ng-z1.a(uip-ds6-route.o)
                0x000000000000854c                uip_ds6_route_nexthop
 .any.text.uip_ds6_route_lookup
                0x0000000000008550        0x4 build/z1/contiki-ng-z1.a(uip-ds6-route.o)
                0x0000000000008550                uip_ds6_route_lookup
 .any.text.uip_ds6_route_rm
                0x0000000000008554        0x2 build/z1/contiki-ng-z1.a(uip-ds6-route.o)
                0x0000000000008554                uip_ds6_route_rm
 .any.text.uip_ds6_defrt_rm
                0x0000000000008556       0x38 build/z1/contiki-ng-z1.a(uip-ds6-route.o)
                0x0000000000008556                uip_ds6_defrt_rm
 .any.text.uip_ds6_defrt_lookup
                0x000000000000858e       0x3c build/z1/contiki-ng-z1.a(uip-ds6-route.o)
                0x000000000000858e                uip_ds6_defrt_lookup
 .any.text.uip_ds6_defrt_add
                0x00000000000085ca       0x66 build/z1/contiki-ng-z1.a(uip-ds6-route.o)
                0x00000000000085ca                uip_ds6_defrt_add
 .any.text.uip_ds6_defrt_choose
                0x0000000000008630       0x36 build/z1/contiki-ng-z1.a(uip-ds6-route.o)
                0x0000000000008630                uip_ds6_defrt_choose
 .any.text.uip_ds6_defrt_periodic
                0x0000000000008666       0x38 build/z1/contiki-ng-z1.a(uip-ds6-route.o)
                0x0000000000008666                uip_ds6_defrt_periodic
 .any.text.tcpip_output
                0x000000000000869e       0x22 build/z1/contiki-ng-z1.a(tcpip.o)
                0x000000000000869e                tcpip_output
 .any.text.udp_new
                0x00000000000086c0       0x1a build/z1/contiki-ng-z1.a(tcpip.o)
                0x00000000000086c0                udp_new
 .any.text.tcpip_input
                0x00000000000086da       0x1e build/z1/contiki-ng-z1.a(tcpip.o)
                0x00000000000086da                tcpip_input
 .any.text.tcpip_ipv6_output
                0x00000000000086f8      0x112 build/z1/contiki-ng-z1.a(tcpip.o)
                0x00000000000086f8                tcpip_ipv6_output
 .any.text.packet_input.part.3
                0x000000000000880a       0x12 build/z1/contiki-ng-z1.a(tcpip.o)
 .any.text.process_thread_tcpip_process
                0x000000000000881c       0xc2 build/z1/contiki-ng-z1.a(tcpip.o)
 .any.text.tcpip_uipcall
                0x00000000000088de       0x2a build/z1/contiki-ng-z1.a(tcpip.o)
                0x00000000000088de                tcpip_uipcall
 .any.text.chksum
                0x0000000000008908       0x32 build/z1/contiki-ng-z1.a(uip6.o)
 .any.text.upper_layer_chksum
                0x000000000000893a       0x54 build/z1/contiki-ng-z1.a(uip6.o)
 .any.text.ext_hdr_options_process
                0x000000000000898e       0x92 build/z1/contiki-ng-z1.a(uip6.o)
 .any.text.uip_check_mtu
                0x0000000000008a20       0x1e build/z1/contiki-ng-z1.a(uip6.o)
 .any.text.uip_update_ttl
                0x0000000000008a3e       0x24 build/z1/contiki-ng-z1.a(uip6.o)
 .any.text.uip_icmp6chksum
                0x0000000000008a62        0xa build/z1/contiki-ng-z1.a(uip6.o)
                0x0000000000008a62                uip_icmp6chksum
 .any.text.uip_udpchksum
                0x0000000000008a6c        0xa build/z1/contiki-ng-z1.a(uip6.o)
                0x0000000000008a6c                uip_udpchksum
 .any.text.uip_init
                0x0000000000008a76       0x24 build/z1/contiki-ng-z1.a(uip6.o)
                0x0000000000008a76                uip_init
 .any.text.uip_remove_ext_hdr
                0x0000000000008a9a       0x5e build/z1/contiki-ng-z1.a(uip6.o)
                0x0000000000008a9a                uip_remove_ext_hdr
 .any.text.uip_udp_new
                0x0000000000008af8       0x84 build/z1/contiki-ng-z1.a(uip6.o)
                0x0000000000008af8                uip_udp_new
 .any.text.uip_process
                0x0000000000008b7c      0x4b6 build/z1/contiki-ng-z1.a(uip6.o)
                0x0000000000008b7c                uip_process
 .any.text.uip_htonl
                0x0000000000009032       0x2a build/z1/contiki-ng-z1.a(uip6.o)
                0x0000000000009032                uip_htonl
 .any.text.uip_ds6_nbr_rm
                0x000000000000905c       0x1e build/z1/contiki-ng-z1.a(uip-ds6-nbr.o)
                0x000000000000905c                uip_ds6_nbr_rm
 .any.text.uip_ds6_neighbors_init
                0x000000000000907a       0x12 build/z1/contiki-ng-z1.a(uip-ds6-nbr.o)
                0x000000000000907a                uip_ds6_neighbors_init
 .any.text.uip_ds6_nbr_add
                0x000000000000908c       0x36 build/z1/contiki-ng-z1.a(uip-ds6-nbr.o)
                0x000000000000908c                uip_ds6_nbr_add
 .any.text.uip_ds6_nbr_get_ipaddr
                0x00000000000090c2        0x2 build/z1/contiki-ng-z1.a(uip-ds6-nbr.o)
                0x00000000000090c2                uip_ds6_nbr_get_ipaddr
 .any.text.uip_ds6_nbr_get_ll
                0x00000000000090c4        0xc build/z1/contiki-ng-z1.a(uip-ds6-nbr.o)
                0x00000000000090c4                uip_ds6_nbr_get_ll
 .any.text.uip_ds6_nbr_head
                0x00000000000090d0        0xa build/z1/contiki-ng-z1.a(uip-ds6-nbr.o)
                0x00000000000090d0                uip_ds6_nbr_head
 .any.text.uip_ds6_nbr_next
                0x00000000000090da        0xc build/z1/contiki-ng-z1.a(uip-ds6-nbr.o)
                0x00000000000090da                uip_ds6_nbr_next
 .any.text.uip_ds6_nbr_lookup
                0x00000000000090e6       0x36 build/z1/contiki-ng-z1.a(uip-ds6-nbr.o)
                0x00000000000090e6                uip_ds6_nbr_lookup
 .any.text.uip_ds6_nbr_ll_lookup
                0x000000000000911c        0xc build/z1/contiki-ng-z1.a(uip-ds6-nbr.o)
                0x000000000000911c                uip_ds6_nbr_ll_lookup
 .any.text.uip_ds6_nbr_update_ll
                0x0000000000009128       0x6e build/z1/contiki-ng-z1.a(uip-ds6-nbr.o)
                0x0000000000009128                uip_ds6_nbr_update_ll
 .any.text.uip_ds6_nbr_ipaddr_from_lladdr
                0x0000000000009196        0x6 build/z1/contiki-ng-z1.a(uip-ds6-nbr.o)
                0x0000000000009196                uip_ds6_nbr_ipaddr_from_lladdr
 .any.text.uip_ds6_nbr_lladdr_from_ipaddr
                0x000000000000919c       0x12 build/z1/contiki-ng-z1.a(uip-ds6-nbr.o)
                0x000000000000919c                uip_ds6_nbr_lladdr_from_ipaddr
 .any.text.uip_ds6_link_callback
                0x00000000000091ae        0x2 build/z1/contiki-ng-z1.a(uip-ds6-nbr.o)
                0x00000000000091ae                uip_ds6_link_callback
 .any.text.ns_input
                0x00000000000091b0      0x27e build/z1/contiki-ng-z1.a(uip-nd6.o)
 .any.text.uip_nd6_init
                0x000000000000942e        0xa build/z1/contiki-ng-z1.a(uip-nd6.o)
                0x000000000000942e                uip_nd6_init
 .any.text.process_thread_simple_udp_process
                0x0000000000009438       0xa8 build/z1/contiki-ng-z1.a(simple-udp.o)
 .any.text.simple_udp_register
                0x00000000000094e0       0x88 build/z1/contiki-ng-z1.a(simple-udp.o)
                0x00000000000094e0                simple_udp_register
 .any.text.addr_context_lookup_by_number
                0x0000000000009568       0x16 build/z1/contiki-ng-z1.a(sicslowpan.o)
 .any.text.sicslowpan_init
                0x000000000000957e       0x18 build/z1/contiki-ng-z1.a(sicslowpan.o)
                0x000000000000957e                sicslowpan_init
 .any.text.set_packet_attrs
                0x0000000000009596       0x66 build/z1/contiki-ng-z1.a(sicslowpan.o)
 .any.text.compress_addr_64
                0x00000000000095fc       0x9a build/z1/contiki-ng-z1.a(sicslowpan.o)
 .any.text.addr_context_lookup_by_prefix
                0x0000000000009696       0x20 build/z1/contiki-ng-z1.a(sicslowpan.o)
 .any.text.output
                0x00000000000096b6      0x67e build/z1/contiki-ng-z1.a(sicslowpan.o)
 .any.text.packet_sent
                0x0000000000009d34       0x4e build/z1/contiki-ng-z1.a(sicslowpan.o)
 .any.text.uncompress_addr
                0x0000000000009d82       0x96 build/z1/contiki-ng-z1.a(sicslowpan.o)
 .any.text.input
                0x0000000000009e18      0x586 build/z1/contiki-ng-z1.a(sicslowpan.o)
 .any.text.netstack_sniffer_add
                0x000000000000a39e        0x6 build/z1/contiki-ng-z1.a(sicslowpan.o)
                0x000000000000a39e                netstack_sniffer_add
 .any.text.remove_neighbor
                0x000000000000a3a4       0x24 build/z1/contiki-ng-z1.a(rpl-neighbor.o)
 .any.text.rpl_neighbor_count
                0x000000000000a3c8       0x2c build/z1/contiki-ng-z1.a(rpl-neighbor.o)
                0x000000000000a3c8                rpl_neighbor_count
 .any.text.rpl_neighbor_get_from_lladdr
                0x000000000000a3f4        0xc build/z1/contiki-ng-z1.a(rpl-neighbor.o)
                0x000000000000a3f4                rpl_neighbor_get_from_lladdr
 .any.text.rpl_neighbor_is_acceptable_parent
                0x000000000000a400       0x20 build/z1/contiki-ng-z1.a(rpl-neighbor.o)
                0x000000000000a400                rpl_neighbor_is_acceptable_parent
 .any.text.rpl_neighbor_get_link_metric
                0x000000000000a420       0x18 build/z1/contiki-ng-z1.a(rpl-neighbor.o)
                0x000000000000a420                rpl_neighbor_get_link_metric
 .any.text.rpl_neighbor_rank_via_nbr
                0x000000000000a438       0x18 build/z1/contiki-ng-z1.a(rpl-neighbor.o)
                0x000000000000a438                rpl_neighbor_rank_via_nbr
 .any.text.rpl_neighbor_get_lladdr
                0x000000000000a450        0xc build/z1/contiki-ng-z1.a(rpl-neighbor.o)
                0x000000000000a450                rpl_neighbor_get_lladdr
 .any.text.rpl_neighbor_get_ipaddr
                0x000000000000a45c        0xa build/z1/contiki-ng-z1.a(rpl-neighbor.o)
                0x000000000000a45c                rpl_neighbor_get_ipaddr
 .any.text.rpl_neighbor_get_link_stats
                0x000000000000a466        0xa build/z1/contiki-ng-z1.a(rpl-neighbor.o)
                0x000000000000a466                rpl_neighbor_get_link_stats
 .any.text.rpl_neighbor_is_fresh
                0x000000000000a470        0xa build/z1/contiki-ng-z1.a(rpl-neighbor.o)
                0x000000000000a470                rpl_neighbor_is_fresh
 .any.text.best_parent
                0x000000000000a47a       0x9c build/z1/contiki-ng-z1.a(rpl-neighbor.o)
 .any.text.rpl_neighbor_snprint
                0x000000000000a516      0x1f0 build/z1/contiki-ng-z1.a(rpl-neighbor.o)
                0x000000000000a516                rpl_neighbor_snprint
 .any.text.rpl_neighbor_is_parent
                0x000000000000a706       0x18 build/z1/contiki-ng-z1.a(rpl-neighbor.o)
                0x000000000000a706                rpl_neighbor_is_parent
 .any.text.rpl_neighbor_set_preferred_parent
                0x000000000000a71e       0x56 build/z1/contiki-ng-z1.a(rpl-neighbor.o)
                0x000000000000a71e                rpl_neighbor_set_preferred_parent
 .any.text.rpl_neighbor_remove_all
                0x000000000000a774       0x30 build/z1/contiki-ng-z1.a(rpl-neighbor.o)
                0x000000000000a774                rpl_neighbor_remove_all
 .any.text.rpl_neighbor_get_from_ipaddr
                0x000000000000a7a4       0x14 build/z1/contiki-ng-z1.a(rpl-neighbor.o)
                0x000000000000a7a4                rpl_neighbor_get_from_ipaddr
 .any.text.rpl_neighbor_select_best
                0x000000000000a7b8       0x54 build/z1/contiki-ng-z1.a(rpl-neighbor.o)
                0x000000000000a7b8                rpl_neighbor_select_best
 .any.text.rpl_neighbor_init
                0x000000000000a80c       0x12 build/z1/contiki-ng-z1.a(rpl-neighbor.o)
                0x000000000000a80c                rpl_neighbor_init
 .any.text.init_dag
                0x000000000000a81e       0x78 build/z1/contiki-ng-z1.a(rpl-dag.o)
 .any.text.process_dio_init_dag
                0x000000000000a896       0xb0 build/z1/contiki-ng-z1.a(rpl-dag.o)
 .any.text.rpl_dag_get_root_ipaddr
                0x000000000000a946       0x1e build/z1/contiki-ng-z1.a(rpl-dag.o)
                0x000000000000a946                rpl_dag_get_root_ipaddr
 .any.text.rpl_dag_leave
                0x000000000000a964       0x4a build/z1/contiki-ng-z1.a(rpl-dag.o)
                0x000000000000a964                rpl_dag_leave
 .any.text.rpl_dag_poison_and_leave
                0x000000000000a9ae        0xc build/z1/contiki-ng-z1.a(rpl-dag.o)
                0x000000000000a9ae                rpl_dag_poison_and_leave
 .any.text.rpl_dag_periodic
                0x000000000000a9ba       0x6a build/z1/contiki-ng-z1.a(rpl-dag.o)
                0x000000000000a9ba                rpl_dag_periodic
 .any.text.rpl_is_addr_in_our_dag
                0x000000000000aa24       0x26 build/z1/contiki-ng-z1.a(rpl-dag.o)
                0x000000000000aa24                rpl_is_addr_in_our_dag
 .any.text.rpl_refresh_routes
                0x000000000000aa4a       0x20 build/z1/contiki-ng-z1.a(rpl-dag.o)
                0x000000000000aa4a                rpl_refresh_routes
 .any.text.rpl_local_repair
                0x000000000000aa6a       0x2a build/z1/contiki-ng-z1.a(rpl-dag.o)
                0x000000000000aa6a                rpl_local_repair
 .any.text.rpl_global_repair
                0x000000000000aa94       0x2e build/z1/contiki-ng-z1.a(rpl-dag.o)
                0x000000000000aa94                rpl_global_repair
 .any.text.rpl_dag_ready_to_advertise
                0x000000000000aac2       0x22 build/z1/contiki-ng-z1.a(rpl-dag.o)
                0x000000000000aac2                rpl_dag_ready_to_advertise
 .any.text.rpl_dag_update_state
                0x000000000000aae4      0x138 build/z1/contiki-ng-z1.a(rpl-dag.o)
                0x000000000000aae4                rpl_dag_update_state
 .any.text.rpl_process_dio
                0x000000000000ac1c      0x19e build/z1/contiki-ng-z1.a(rpl-dag.o)
                0x000000000000ac1c                rpl_process_dio
 .any.text.rpl_process_dis
                0x000000000000adba       0x2a build/z1/contiki-ng-z1.a(rpl-dag.o)
                0x000000000000adba                rpl_process_dis
 .any.text.rpl_process_dao
                0x000000000000ade4       0x66 build/z1/contiki-ng-z1.a(rpl-dag.o)
                0x000000000000ade4                rpl_process_dao
 .any.text.rpl_process_dao_ack
                0x000000000000ae4a       0x50 build/z1/contiki-ng-z1.a(rpl-dag.o)
                0x000000000000ae4a                rpl_process_dao_ack
 .any.text.rpl_process_hbh
                0x000000000000ae9a       0x26 build/z1/contiki-ng-z1.a(rpl-dag.o)
                0x000000000000ae9a                rpl_process_hbh
 .any.text.rpl_dag_init_root
                0x000000000000aec0       0xaa build/z1/contiki-ng-z1.a(rpl-dag.o)
                0x000000000000aec0                rpl_dag_init_root
 .any.text.rpl_dag_init
                0x000000000000af6a       0x10 build/z1/contiki-ng-z1.a(rpl-dag.o)
                0x000000000000af6a                rpl_dag_init
 .any.text.handle_state_update
                0x000000000000af7a        0x6 build/z1/contiki-ng-z1.a(rpl-timers.o)
 .any.text.handle_leaving_timer
                0x000000000000af80        0xc build/z1/contiki-ng-z1.a(rpl-timers.o)
 .any.text.schedule_dao_retransmission
                0x000000000000af8c       0x30 build/z1/contiki-ng-z1.a(rpl-timers.o)
 .any.text.handle_unicast_dio_timer
                0x000000000000afbc       0x12 build/z1/contiki-ng-z1.a(rpl-timers.o)
 .any.text.send_new_dao
                0x000000000000afce       0x28 build/z1/contiki-ng-z1.a(rpl-timers.o)
 .any.text.resend_dao
                0x000000000000aff6       0x24 build/z1/contiki-ng-z1.a(rpl-timers.o)
 .any.text.handle_dao_ack_timer
                0x000000000000b01a       0x12 build/z1/contiki-ng-z1.a(rpl-timers.o)
 .any.text.new_dio_interval
                0x000000000000b02c       0xae build/z1/contiki-ng-z1.a(rpl-timers.o)
 .any.text.handle_dio_timer
                0x000000000000b0da       0x6e build/z1/contiki-ng-z1.a(rpl-timers.o)
 .any.text.rpl_timers_schedule_periodic_dis
                0x000000000000b148       0x3c build/z1/contiki-ng-z1.a(rpl-timers.o)
                0x000000000000b148                rpl_timers_schedule_periodic_dis
 .any.text.handle_periodic_timer
                0x000000000000b184       0x3a build/z1/contiki-ng-z1.a(rpl-timers.o)
 .any.text.handle_dis_timer
                0x000000000000b1be       0x26 build/z1/contiki-ng-z1.a(rpl-timers.o)
 .any.text.rpl_timers_dio_reset
                0x000000000000b1e4       0x2e build/z1/contiki-ng-z1.a(rpl-timers.o)
                0x000000000000b1e4                rpl_timers_dio_reset
 .any.text.rpl_timers_schedule_unicast_dio
                0x000000000000b212       0x20 build/z1/contiki-ng-z1.a(rpl-timers.o)
                0x000000000000b212                rpl_timers_schedule_unicast_dio
 .any.text.rpl_timers_schedule_dao
                0x000000000000b232       0x38 build/z1/contiki-ng-z1.a(rpl-timers.o)
                0x000000000000b232                rpl_timers_schedule_dao
 .any.text.rpl_timers_schedule_dao_ack
                0x000000000000b26a       0x34 build/z1/contiki-ng-z1.a(rpl-timers.o)
                0x000000000000b26a                rpl_timers_schedule_dao_ack
 .any.text.rpl_timers_notify_dao_ack
                0x000000000000b29e       0x7e build/z1/contiki-ng-z1.a(rpl-timers.o)
                0x000000000000b29e                rpl_timers_notify_dao_ack
 .any.text.get_probing_delay
                0x000000000000b31c       0x1c build/z1/contiki-ng-z1.a(rpl-timers.o)
                0x000000000000b31c                get_probing_delay
 .any.text.get_probing_target
                0x000000000000b338       0xda build/z1/contiki-ng-z1.a(rpl-timers.o)
                0x000000000000b338                get_probing_target
 .any.text.rpl_schedule_probing
                0x000000000000b412       0x20 build/z1/contiki-ng-z1.a(rpl-timers.o)
                0x000000000000b412                rpl_schedule_probing
 .any.text.handle_probing_timer
                0x000000000000b432       0x26 build/z1/contiki-ng-z1.a(rpl-timers.o)
 .any.text.rpl_schedule_probing_now
                0x000000000000b458       0x24 build/z1/contiki-ng-z1.a(rpl-timers.o)
                0x000000000000b458                rpl_schedule_probing_now
 .any.text.rpl_timers_unschedule_leaving
                0x000000000000b47c       0x1c build/z1/contiki-ng-z1.a(rpl-timers.o)
                0x000000000000b47c                rpl_timers_unschedule_leaving
 .any.text.rpl_timers_schedule_leaving
                0x000000000000b498       0x2a build/z1/contiki-ng-z1.a(rpl-timers.o)
                0x000000000000b498                rpl_timers_schedule_leaving
 .any.text.rpl_timers_init
                0x000000000000b4c2       0x1c build/z1/contiki-ng-z1.a(rpl-timers.o)
                0x000000000000b4c2                rpl_timers_init
 .any.text.rpl_timers_stop_dag_timers
                0x000000000000b4de       0x4c build/z1/contiki-ng-z1.a(rpl-timers.o)
                0x000000000000b4de                rpl_timers_stop_dag_timers
 .any.text.rpl_timers_unschedule_state_update
                0x000000000000b52a       0x10 build/z1/contiki-ng-z1.a(rpl-timers.o)
                0x000000000000b52a                rpl_timers_unschedule_state_update
 .any.text.rpl_timers_schedule_state_update
                0x000000000000b53a       0x1c build/z1/contiki-ng-z1.a(rpl-timers.o)
                0x000000000000b53a                rpl_timers_schedule_state_update
 .any.text.rpl_has_joined
                0x000000000000b556       0x12 build/z1/contiki-ng-z1.a(rpl.o)
                0x000000000000b556                rpl_has_joined
 .any.text.rpl_is_reachable
                0x000000000000b568       0x12 build/z1/contiki-ng-z1.a(rpl.o)
                0x000000000000b568                rpl_is_reachable
 .any.text.neighbor_state_changed
                0x000000000000b57a        0x2 build/z1/contiki-ng-z1.a(rpl.o)
 .any.text.drop_route
                0x000000000000b57c        0x2 build/z1/contiki-ng-z1.a(rpl.o)
 .any.text.rpl_get_leaf_only
                0x000000000000b57e        0x6 build/z1/contiki-ng-z1.a(rpl.o)
                0x000000000000b57e                rpl_get_leaf_only
 .any.text.get_sr_node_ipaddr
                0x000000000000b584       0x30 build/z1/contiki-ng-z1.a(rpl.o)
 .any.text.init
                0x000000000000b5b4       0x42 build/z1/contiki-ng-z1.a(rpl.o)
 .any.text.set_ip_from_prefix
                0x000000000000b5f6       0x30 build/z1/contiki-ng-z1.a(rpl.o)
 .any.text.rpl_link_callback
                0x000000000000b626       0x1e build/z1/contiki-ng-z1.a(rpl.o)
                0x000000000000b626                rpl_link_callback
 .any.text.rpl_lollipop_greater_than
                0x000000000000b644       0x3c build/z1/contiki-ng-z1.a(rpl.o)
                0x000000000000b644                rpl_lollipop_greater_than
 .any.text.rpl_get_global_address
                0x000000000000b680       0x8c build/z1/contiki-ng-z1.a(rpl.o)
                0x000000000000b680                rpl_get_global_address
 .any.text.rpl_reset_prefix
                0x000000000000b70c       0x24 build/z1/contiki-ng-z1.a(rpl.o)
                0x000000000000b70c                rpl_reset_prefix
 .any.text.rpl_set_prefix_from_addr
                0x000000000000b730       0x80 build/z1/contiki-ng-z1.a(rpl.o)
                0x000000000000b730                rpl_set_prefix_from_addr
 .any.text.reset
                0x000000000000b7b0        0x2 build/z1/contiki-ng-z1.a(rpl-mrhof.o)
 .any.text.update_metric_container
                0x000000000000b7b2        0x6 build/z1/contiki-ng-z1.a(rpl-mrhof.o)
 .any.text.nbr_link_metric
                0x000000000000b7b8       0x12 build/z1/contiki-ng-z1.a(rpl-mrhof.o)
 .any.text.nbr_has_usable_link
                0x000000000000b7ca       0x14 build/z1/contiki-ng-z1.a(rpl-mrhof.o)
 .any.text.nbr_path_cost
                0x000000000000b7de       0x34 build/z1/contiki-ng-z1.a(rpl-mrhof.o)
 .any.text.within_hysteresis
                0x000000000000b812       0x4c build/z1/contiki-ng-z1.a(rpl-mrhof.o)
 .any.text.nbr_is_acceptable_parent
                0x000000000000b85e       0x28 build/z1/contiki-ng-z1.a(rpl-mrhof.o)
 .any.text.rank_via_nbr
                0x000000000000b886       0x40 build/z1/contiki-ng-z1.a(rpl-mrhof.o)
 .any.text.best_parent
                0x000000000000b8c6       0x74 build/z1/contiki-ng-z1.a(rpl-mrhof.o)
 .any.text.get32
                0x000000000000b93a       0x3e build/z1/contiki-ng-z1.a(rpl-icmp6.o)
 .any.text.set32
                0x000000000000b978       0x2a build/z1/contiki-ng-z1.a(rpl-icmp6.o)
 .any.text.get16
                0x000000000000b9a2        0xe build/z1/contiki-ng-z1.a(rpl-icmp6.o)
 .any.text.set16
                0x000000000000b9b0       0x10 build/z1/contiki-ng-z1.a(rpl-icmp6.o)
 .any.text.dao_ack_input
                0x000000000000b9c0       0x30 build/z1/contiki-ng-z1.a(rpl-icmp6.o)
 .any.text.dao_input
                0x000000000000b9f0      0x166 build/z1/contiki-ng-z1.a(rpl-icmp6.o)
 .any.text.dio_input
                0x000000000000bb56      0x292 build/z1/contiki-ng-z1.a(rpl-icmp6.o)
 .any.text.dis_input
                0x000000000000bde8       0x1e build/z1/contiki-ng-z1.a(rpl-icmp6.o)
 .any.text.rpl_icmp6_update_nbr_table
                0x000000000000be06       0x2e build/z1/contiki-ng-z1.a(rpl-icmp6.o)
                0x000000000000be06                rpl_icmp6_update_nbr_table
 .any.text.rpl_icmp6_dis_output
                0x000000000000be34       0x34 build/z1/contiki-ng-z1.a(rpl-icmp6.o)
                0x000000000000be34                rpl_icmp6_dis_output
 .any.text.rpl_icmp6_dio_output
                0x000000000000be68      0x228 build/z1/contiki-ng-z1.a(rpl-icmp6.o)
                0x000000000000be68                rpl_icmp6_dio_output
 .any.text.rpl_icmp6_dao_output
                0x000000000000c090       0xd6 build/z1/contiki-ng-z1.a(rpl-icmp6.o)
                0x000000000000c090                rpl_icmp6_dao_output
 .any.text.rpl_icmp6_dao_ack_output
                0x000000000000c166       0x46 build/z1/contiki-ng-z1.a(rpl-icmp6.o)
                0x000000000000c166                rpl_icmp6_dao_ack_output
 .any.text.rpl_icmp6_init
                0x000000000000c1ac       0x22 build/z1/contiki-ng-z1.a(rpl-icmp6.o)
                0x000000000000c1ac                rpl_icmp6_init
 .any.text.rpl_dag_root_set_prefix
                0x000000000000c1ce       0x5e build/z1/contiki-ng-z1.a(rpl-dag-root.o)
                0x000000000000c1ce                rpl_dag_root_set_prefix
 .any.text.rpl_dag_root_start
                0x000000000000c22c       0x82 build/z1/contiki-ng-z1.a(rpl-dag-root.o)
                0x000000000000c22c                rpl_dag_root_start
 .any.text.rpl_dag_root_is_root
                0x000000000000c2ae       0x14 build/z1/contiki-ng-z1.a(rpl-dag-root.o)
                0x000000000000c2ae                rpl_dag_root_is_root
 .any.text.init_platform
                0x000000000000c2c2        0xc build/z1/contiki-ng-z1.a(contiki-z1-plat)
                0x000000000000c2c2                init_platform
 .any.text.leds_init
                0x000000000000c2ce        0x6 build/z1/contiki-ng-z1.a(leds.o)
                0x000000000000c2ce                leds_init
 .any.text.leds_on
                0x000000000000c2d4       0x12 build/z1/contiki-ng-z1.a(leds.o)
                0x000000000000c2d4                leds_on
 .any.text.leds_off
                0x000000000000c2e6       0x12 build/z1/contiki-ng-z1.a(leds.o)
                0x000000000000c2e6                leds_off
 .any.text.wait_ready
                0x000000000000c2f8       0x46 build/z1/contiki-ng-z1.a(xmem.o)
 .any.text.xmem_init
                0x000000000000c33e       0x1e build/z1/contiki-ng-z1.a(xmem.o)
                0x000000000000c33e                xmem_init
 .any.text.xmem_pread
                0x000000000000c35c       0x88 build/z1/contiki-ng-z1.a(xmem.o)
                0x000000000000c35c                xmem_pread
 .any.text.spi_init
                0x000000000000c3e4       0x32 build/z1/contiki-ng-z1.a(spi-legacy.o)
                0x000000000000c3e4                spi_init
 .any.text.set_object
                0x000000000000c416        0x4 build/z1/contiki-ng-z1.a(cc2420.o)
 .any.text.strobe
                0x000000000000c41a       0x1a build/z1/contiki-ng-z1.a(cc2420.o)
 .any.text.getreg
                0x000000000000c434       0x46 build/z1/contiki-ng-z1.a(cc2420.o)
 .any.text.setreg
                0x000000000000c47a       0x44 build/z1/contiki-ng-z1.a(cc2420.o)
 .any.text.write_ram
                0x000000000000c4be       0x72 build/z1/contiki-ng-z1.a(cc2420.o)
 .any.text.write_fifo_buf
                0x000000000000c530       0x38 build/z1/contiki-ng-z1.a(cc2420.o)
 .any.text.get_status
                0x000000000000c568       0x1e build/z1/contiki-ng-z1.a(cc2420.o)
 .any.text.cc2420_receiving_packet
                0x000000000000c586        0xa build/z1/contiki-ng-z1.a(cc2420.o)
 .any.text.pending_packet
                0x000000000000c590        0xa build/z1/contiki-ng-z1.a(cc2420.o)
 .any.text.wait_for_transmission
                0x000000000000c59a       0x22 build/z1/contiki-ng-z1.a(cc2420.o)
 .any.text.wait_for_status
                0x000000000000c5bc       0x24 build/z1/contiki-ng-z1.a(cc2420.o)
 .any.text.getrxdata
                0x000000000000c5e0       0x4c build/z1/contiki-ng-z1.a(cc2420.o)
 .any.text.flushrx
                0x000000000000c62c       0x1a build/z1/contiki-ng-z1.a(cc2420.o)
 .any.text.get_object
                0x000000000000c646       0x20 build/z1/contiki-ng-z1.a(cc2420.o)
 .any.text.energest_on
                0x000000000000c666       0x22 build/z1/contiki-ng-z1.a(cc2420.o)
 .any.text.on   0x000000000000c688       0x20 build/z1/contiki-ng-z1.a(cc2420.o)
 .any.text.energest_off
                0x000000000000c6a8       0x88 build/z1/contiki-ng-z1.a(cc2420.o)
 .any.text.off  0x000000000000c730       0x2e build/z1/contiki-ng-z1.a(cc2420.o)
 .any.text.RELEASE_LOCK
                0x000000000000c75e       0x28 build/z1/contiki-ng-z1.a(cc2420.o)
 .any.text.set_frame_filtering
                0x000000000000c786       0x30 build/z1/contiki-ng-z1.a(cc2420.o)
 .any.text.set_auto_ack
                0x000000000000c7b6       0x30 build/z1/contiki-ng-z1.a(cc2420.o)
 .any.text.set_poll_mode
                0x000000000000c7e6       0x2c build/z1/contiki-ng-z1.a(cc2420.o)
 .any.text.cc2420_prepare
                0x000000000000c812       0x42 build/z1/contiki-ng-z1.a(cc2420.o)
 .any.text.cc2420_on
                0x000000000000c854       0x22 build/z1/contiki-ng-z1.a(cc2420.o)
                0x000000000000c854                cc2420_on
 .any.text.cc2420_transmit
                0x000000000000c876       0x8a build/z1/contiki-ng-z1.a(cc2420.o)
 .any.text.cc2420_send
                0x000000000000c900       0x12 build/z1/contiki-ng-z1.a(cc2420.o)
 .any.text.cc2420_off
                0x000000000000c912       0x30 build/z1/contiki-ng-z1.a(cc2420.o)
                0x000000000000c912                cc2420_off
 .any.text.cc2420_cca
                0x000000000000c942       0x54 build/z1/contiki-ng-z1.a(cc2420.o)
 .any.text.cc2420_read
                0x000000000000c996       0xba build/z1/contiki-ng-z1.a(cc2420.o)
 .any.text.process_thread_cc2420_process
                0x000000000000ca50       0x62 build/z1/contiki-ng-z1.a(cc2420.o)
 .any.text.cc2420_set_channel
                0x000000000000cab2       0x3a build/z1/contiki-ng-z1.a(cc2420.o)
                0x000000000000cab2                cc2420_set_channel
 .any.text.cc2420_set_pan_addr
                0x000000000000caec       0x4c build/z1/contiki-ng-z1.a(cc2420.o)
                0x000000000000caec                cc2420_set_pan_addr
 .any.text.cc2420_interrupt
                0x000000000000cb38       0x16 build/z1/contiki-ng-z1.a(cc2420.o)
                0x000000000000cb38                cc2420_interrupt
 .any.text.cc2420_set_txpower
                0x000000000000cb4e       0x2c build/z1/contiki-ng-z1.a(cc2420.o)
                0x000000000000cb4e                cc2420_set_txpower
 .any.text.cc2420_get_txpower
                0x000000000000cb7a       0x1e build/z1/contiki-ng-z1.a(cc2420.o)
                0x000000000000cb7a                cc2420_get_txpower
 .any.text.cc2420_rssi
                0x000000000000cb98       0x48 build/z1/contiki-ng-z1.a(cc2420.o)
                0x000000000000cb98                cc2420_rssi
 .any.text.get_value
                0x000000000000cbe0      0x11e build/z1/contiki-ng-z1.a(cc2420.o)
 .any.text.cc2420_set_cca_threshold
                0x000000000000ccfe       0x16 build/z1/contiki-ng-z1.a(cc2420.o)
                0x000000000000ccfe                cc2420_set_cca_threshold
 .any.text.set_value
                0x000000000000cd14      0x14a build/z1/contiki-ng-z1.a(cc2420.o)
 .any.text.cc2420_init
                0x000000000000ce5e       0xea build/z1/contiki-ng-z1.a(cc2420.o)
                0x000000000000ce5e                cc2420_init
 .any.text.cc2420_arch_init
                0x000000000000cf48       0x1e build/z1/contiki-ng-z1.a(cc2420-arch.o)
                0x000000000000cf48                cc2420_arch_init
 .any.text.cc2420_arch_sfd_init
                0x000000000000cf66       0x26 build/z1/contiki-ng-z1.a(cc2420-arch-sfd)
                0x000000000000cf66                cc2420_arch_sfd_init
 .any.text.node_id_z1_restore
                0x000000000000cf8c       0x4c build/z1/contiki-ng-z1.a(node-id-z1.o)
                0x000000000000cf8c                node_id_z1_restore
 .any.text.process_thread_sensors_process
                0x000000000000cfd8       0xc2 build/z1/contiki-ng-z1.a(sensors.o)
 .any.text.sensors_changed
                0x000000000000d09a       0x2a build/z1/contiki-ng-z1.a(sensors.o)
                0x000000000000d09a                sensors_changed
 .any.text.uart0_active
                0x000000000000d0c4        0xe build/z1/contiki-ng-z1.a(uart0.o)
                0x000000000000d0c4                uart0_active
 .any.text.uart0_writeb
                0x000000000000d0d2       0x16 build/z1/contiki-ng-z1.a(uart0.o)
                0x000000000000d0d2                uart0_writeb
 .any.text.uart0_init
                0x000000000000d0e8       0x4e build/z1/contiki-ng-z1.a(uart0.o)
                0x000000000000d0e8                uart0_init
 .any.text.status
                0x000000000000d136       0x12 build/z1/contiki-ng-z1.a(adxl345.o)
 .any.text.accm_write_reg
                0x000000000000d148       0x2e build/z1/contiki-ng-z1.a(adxl345.o)
 .any.text.accm_write_stream
                0x000000000000d176       0x2a build/z1/contiki-ng-z1.a(adxl345.o)
 .any.text.accm_read_reg
                0x000000000000d1a0       0x54 build/z1/contiki-ng-z1.a(adxl345.o)
 .any.text.process_thread_accmeter_process
                0x000000000000d1f4       0x56 build/z1/contiki-ng-z1.a(adxl345.o)
 .any.text.accm_read_axis.part.0
                0x000000000000d24a       0x5a build/z1/contiki-ng-z1.a(adxl345.o)
 .any.text.value
                0x000000000000d2a4       0x1e build/z1/contiki-ng-z1.a(adxl345.o)
 .any.text.accm_init
                0x000000000000d2c2       0x78 build/z1/contiki-ng-z1.a(adxl345.o)
                0x000000000000d2c2                accm_init
 .any.text.accm_stop
                0x000000000000d33a       0x32 build/z1/contiki-ng-z1.a(adxl345.o)
                0x000000000000d33a                accm_stop
 .any.text.configure
                0x000000000000d36c       0x26 build/z1/contiki-ng-z1.a(adxl345.o)
 .any.text.status
                0x000000000000d392       0x12 build/z1/contiki-ng-z1.a(tmp102.o)
 .any.text.tmp102_init
                0x000000000000d3a4       0x24 build/z1/contiki-ng-z1.a(tmp102.o)
                0x000000000000d3a4                tmp102_init
 .any.text.tmp102_stop
                0x000000000000d3c8        0xa build/z1/contiki-ng-z1.a(tmp102.o)
                0x000000000000d3c8                tmp102_stop
 .any.text.configure
                0x000000000000d3d2       0x26 build/z1/contiki-ng-z1.a(tmp102.o)
 .any.text.tmp102_read_reg
                0x000000000000d3f8       0x5e build/z1/contiki-ng-z1.a(tmp102.o)
                0x000000000000d3f8                tmp102_read_reg
 .any.text.tmp102_read_temp_x100
                0x000000000000d456       0x58 build/z1/contiki-ng-z1.a(tmp102.o)
                0x000000000000d456                tmp102_read_temp_x100
 .any.text.value
                0x000000000000d4ae        0x6 build/z1/contiki-ng-z1.a(tmp102.o)
 .any.text.leds_arch_init
                0x000000000000d4b4        0xe build/z1/contiki-ng-z1.a(leds-arch.o)
                0x000000000000d4b4                leds_arch_init
 .any.text.leds_arch_get
                0x000000000000d4c2       0x34 build/z1/contiki-ng-z1.a(leds-arch.o)
                0x000000000000d4c2                leds_arch_get
 .any.text.leds_arch_set
                0x000000000000d4f6       0x3e build/z1/contiki-ng-z1.a(leds-arch.o)
                0x000000000000d4f6                leds_arch_set
 .any.text.int_master_read_and_disable
                0x000000000000d534        0x8 build/z1/contiki-ng-z1.a(int-master.o)
                0x000000000000d534                int_master_read_and_disable
 .any.text.int_master_status_set
                0x000000000000d53c        0x4 build/z1/contiki-ng-z1.a(int-master.o)
                0x000000000000d53c                int_master_status_set
 .any.text.shell_output_6addr
                0x000000000000d540       0x4c build/z1/contiki-ng-z1.a(shell.o)
                0x000000000000d540                shell_output_6addr
 .any.text.shell_output_lladdr
                0x000000000000d58c       0x82 build/z1/contiki-ng-z1.a(shell.o)
                0x000000000000d58c                shell_output_lladdr
 .any.text.shell_input
                0x000000000000d60e       0xbe build/z1/contiki-ng-z1.a(shell.o)
                0x000000000000d60e                shell_input
 .any.text.shell_init
                0x000000000000d6cc        0x6 build/z1/contiki-ng-z1.a(shell.o)
                0x000000000000d6cc                shell_init
 .any.text.cmd_rpl_global_repair
                0x000000000000d6d2       0x36 build/z1/contiki-ng-z1.a(shell-commands.)
 .any.text.cmd_rpl_local_repair
                0x000000000000d708       0x36 build/z1/contiki-ng-z1.a(shell-commands.)
 .any.text.cmd_macaddr
                0x000000000000d73e       0x46 build/z1/contiki-ng-z1.a(shell-commands.)
 .any.text.cmd_tsch_status
                0x000000000000d784      0x1d4 build/z1/contiki-ng-z1.a(shell-commands.)
 .any.text.cmd_help
                0x000000000000d958       0x86 build/z1/contiki-ng-z1.a(shell-commands.)
 .any.text.cmd_tsch_schedule
                0x000000000000d9de      0x110 build/z1/contiki-ng-z1.a(shell-commands.)
 .any.text.cmd_tsch_set_coordinator
                0x000000000000daee      0x152 build/z1/contiki-ng-z1.a(shell-commands.)
 .any.text.cmd_rpl_nbr
                0x000000000000dc40       0xb4 build/z1/contiki-ng-z1.a(shell-commands.)
 .any.text.cmd_ipaddr
                0x000000000000dcf4       0x82 build/z1/contiki-ng-z1.a(shell-commands.)
 .any.text.cmd_rpl_status
                0x000000000000dd76      0x370 build/z1/contiki-ng-z1.a(shell-commands.)
 .any.text.cmd_rpl_refresh_routes
                0x000000000000e0e6       0x36 build/z1/contiki-ng-z1.a(shell-commands.)
 .any.text.cmd_rpl_set_root
                0x000000000000e11c      0x186 build/z1/contiki-ng-z1.a(shell-commands.)
 .any.text.cmd_routes
                0x000000000000e2a2      0x142 build/z1/contiki-ng-z1.a(shell-commands.)
 .any.text.cmd_ping
                0x000000000000e3e4      0x1b2 build/z1/contiki-ng-z1.a(shell-commands.)
 .any.text.shell_output_log_levels
                0x000000000000e596       0x74 build/z1/contiki-ng-z1.a(shell-commands.)
 .any.text.cmd_reboot
                0x000000000000e60a       0x32 build/z1/contiki-ng-z1.a(shell-commands.)
 .any.text.echo_reply_handler
                0x000000000000e63c       0x20 build/z1/contiki-ng-z1.a(shell-commands.)
 .any.text.stimer_set
                0x000000000000e65c       0x1c build/z1/contiki-ng-z1.a(stimer.o)
                0x000000000000e65c                stimer_set

.rodata         0x000000000000e678     0x170b
                0x000000000000e678                . = ALIGN (0x2)
 *(.rodata .rodata.* .gnu.linkonce.r.*)
 .rodata.udp_rx_callback
                0x000000000000e678        0xd udp-server.o
 *fill*         0x000000000000e685        0x1 00
 .rodata.autostart_processes
                0x000000000000e686        0x4 udp-server.o
                0x000000000000e686                autostart_processes
 .rodata        0x000000000000e68a        0xb udp-server.o
 .rodata        0x000000000000e695       0xf5 build/z1/obj/contiki-main.o
 .rodata.platform_init_stage_three
                0x000000000000e78a       0x30 build/z1/contiki-ng-z1.a(platform.o)
 .rodata.serial_shell_output
                0x000000000000e7ba        0x3 build/z1/contiki-ng-z1.a(serial-shell.o)
 .rodata        0x000000000000e7bd       0x15 build/z1/contiki-ng-z1.a(serial-shell.o)
 .rodata        0x000000000000e7d2       0x21 build/z1/contiki-ng-z1.a(orchestra-rule-)
 .rodata        0x000000000000e7f3        0xf build/z1/contiki-ng-z1.a(orchestra-rule-)
 .rodata.orchestra_init
                0x000000000000e802       0x45 build/z1/contiki-ng-z1.a(orchestra.o)
 .rodata        0x000000000000e847       0x13 build/z1/contiki-ng-z1.a(orchestra-rule-)
 .rodata        0x000000000000e85a        0xf build/z1/contiki-ng-z1.a(ctimer.o)
 .rodata        0x000000000000e869        0xc build/z1/contiki-ng-z1.a(etimer.o)
 .rodata.log_6addr
                0x000000000000e875        0x3 build/z1/contiki-ng-z1.a(log.o)
 .rodata.log_lladdr
                0x000000000000e878       0x14 build/z1/contiki-ng-z1.a(log.o)
 .rodata.log_set_level
                0x000000000000e88c        0x4 build/z1/contiki-ng-z1.a(log.o)
 .rodata.log_level_to_str
                0x000000000000e890        0x4 build/z1/contiki-ng-z1.a(log.o)
 .rodata        0x000000000000e894       0x64 build/z1/contiki-ng-z1.a(log.o)
 .rodata.CSWTCH.10
                0x000000000000e8f8        0xa build/z1/contiki-ng-z1.a(log.o)
 .rodata.process_thread_stack_check_process
                0x000000000000e902       0x5e build/z1/contiki-ng-z1.a(stack-check.o)
 .rodata        0x000000000000e960        0xc build/z1/contiki-ng-z1.a(stack-check.o)
 .rodata.linkaddr_null
                0x000000000000e96c        0x8 build/z1/contiki-ng-z1.a(linkaddr.o)
                0x000000000000e96c                linkaddr_null
 .rodata.find_shared_timeslot_children
                0x000000000000e974       0x21 build/z1/contiki-ng-z1.a(tsch.o)
 .rodata        0x000000000000e995       0x41 build/z1/contiki-ng-z1.a(tsch.o)
 .rodata.tschmac_driver
                0x000000000000e9d6       0x1a build/z1/contiki-ng-z1.a(tsch.o)
                0x000000000000e9d6                tschmac_driver
 .rodata.tsch_eb_address
                0x000000000000e9f0        0x8 build/z1/contiki-ng-z1.a(tsch.o)
                0x000000000000e9f0                tsch_eb_address
 .rodata.tsch_broadcast_address
                0x000000000000e9f8        0x8 build/z1/contiki-ng-z1.a(tsch.o)
                0x000000000000e9f8                tsch_broadcast_address
 .rodata.tsch_schedule_get_link_by_timeslot
                0x000000000000ea00        0xf build/z1/contiki-ng-z1.a(tsch-schedule.o)
 .rodata.tsch_schedule_add_link
                0x000000000000ea0f      0x101 build/z1/contiki-ng-z1.a(tsch-schedule.o)
 .rodata        0x000000000000eb10       0x14 build/z1/contiki-ng-z1.a(tsch-schedule.o)
 .rodata.CSWTCH.50
                0x000000000000eb24        0x6 build/z1/contiki-ng-z1.a(tsch-schedule.o)
 .rodata.tsch_rpl_callback_leaving_network
                0x000000000000eb2a        0xd build/z1/contiki-ng-z1.a(tsch-rpl.o)
 .rodata.uiplib_ipaddr_snprint
                0x000000000000eb37       0x2a build/z1/contiki-ng-z1.a(uiplib.o)
 .rodata        0x000000000000eb61        0xd build/z1/contiki-ng-z1.a(tcpip.o)
 .rodata        0x000000000000eb6e       0x13 build/z1/contiki-ng-z1.a(simple-udp.o)
 .rodata        0x000000000000eb81        0xb build/z1/contiki-ng-z1.a(sicslowpan.o)
 .rodata.sicslowpan_driver
                0x000000000000eb8c        0xe build/z1/contiki-ng-z1.a(sicslowpan.o)
                0x000000000000eb8c                sicslowpan_driver
 .rodata.llprefix
                0x000000000000eb9a        0x2 build/z1/contiki-ng-z1.a(sicslowpan.o)
                0x000000000000eb9a                llprefix
 .rodata.unc_mxconf
                0x000000000000eb9c        0x4 build/z1/contiki-ng-z1.a(sicslowpan.o)
                0x000000000000eb9c                unc_mxconf
 .rodata.unc_ctxconf
                0x000000000000eba0        0x4 build/z1/contiki-ng-z1.a(sicslowpan.o)
                0x000000000000eba0                unc_ctxconf
 .rodata.unc_llconf
                0x000000000000eba4        0x4 build/z1/contiki-ng-z1.a(sicslowpan.o)
                0x000000000000eba4                unc_llconf
 .rodata.ttl_values
                0x000000000000eba8        0x4 build/z1/contiki-ng-z1.a(sicslowpan.o)
 .rodata.rpl_neighbor_snprint
                0x000000000000ebac       0x58 build/z1/contiki-ng-z1.a(rpl-neighbor.o)
 .rodata.process_dio_init_dag
                0x000000000000ec04        0x5 build/z1/contiki-ng-z1.a(rpl-dag.o)
 .rodata.rpl_local_repair
                0x000000000000ec09        0xd build/z1/contiki-ng-z1.a(rpl-dag.o)
 .rodata.rpl_global_repair
                0x000000000000ec16        0xe build/z1/contiki-ng-z1.a(rpl-dag.o)
 .rodata.rpl_dag_update_state
                0x000000000000ec24       0x31 build/z1/contiki-ng-z1.a(rpl-dag.o)
 .rodata.rpl_process_dio
                0x000000000000ec55       0x35 build/z1/contiki-ng-z1.a(rpl-dag.o)
 .rodata.rpl_process_dis
                0x000000000000ec8a        0xe build/z1/contiki-ng-z1.a(rpl-dag.o)
 .rodata.rpl_process_dao_ack
                0x000000000000ec98        0xa build/z1/contiki-ng-z1.a(rpl-dag.o)
 .rodata.rpl_dag_init_root
                0x000000000000eca2        0xa build/z1/contiki-ng-z1.a(rpl-dag.o)
 .rodata.resend_dao
                0x000000000000ecac        0xc build/z1/contiki-ng-z1.a(rpl-timers.o)
 .rodata        0x000000000000ecb8        0x9 build/z1/contiki-ng-z1.a(rpl.o)
 *fill*         0x000000000000ecc1        0x1 00
 .rodata.rpl_lite_driver
                0x000000000000ecc2       0x52 build/z1/contiki-ng-z1.a(rpl.o)
                0x000000000000ecc2                rpl_lite_driver
 .rodata.dio_input
                0x000000000000ed14       0x64 build/z1/contiki-ng-z1.a(rpl-icmp6.o)
 .rodata.get_value
                0x000000000000ed78       0x64 build/z1/contiki-ng-z1.a(cc2420.o)
 .rodata.set_value
                0x000000000000eddc       0x20 build/z1/contiki-ng-z1.a(cc2420.o)
 .rodata.cc2420_driver
                0x000000000000edfc       0x38 build/z1/contiki-ng-z1.a(cc2420.o)
                0x000000000000edfc                cc2420_driver
 .rodata        0x000000000000ee34        0xe build/z1/contiki-ng-z1.a(cc2420.o)
 .rodata.output_power
                0x000000000000ee42       0x10 build/z1/contiki-ng-z1.a(cc2420.o)
 .rodata        0x000000000000ee52        0x8 build/z1/contiki-ng-z1.a(sensors.o)
 .rodata        0x000000000000ee5a       0x25 build/z1/contiki-ng-z1.a(adxl345.o)
 *fill*         0x000000000000ee7f        0x1 00
 .rodata.adxl345
                0x000000000000ee80        0xe build/z1/contiki-ng-z1.a(adxl345.o)
                0x000000000000ee80                adxl345
 .rodata        0x000000000000ee8e        0xe build/z1/contiki-ng-z1.a(tmp102.o)
 .rodata.tmp102
                0x000000000000ee9c        0xe build/z1/contiki-ng-z1.a(tmp102.o)
                0x000000000000ee9c                tmp102
 .rodata.shell_output_6addr
                0x000000000000eeaa        0x3 build/z1/contiki-ng-z1.a(shell.o)
 .rodata.shell_output_lladdr
                0x000000000000eead       0x16 build/z1/contiki-ng-z1.a(shell.o)
 .rodata.shell_input
                0x000000000000eec3       0x3c build/z1/contiki-ng-z1.a(shell.o)
 .rodata.cmd_rpl_global_repair
                0x000000000000eeff       0x28 build/z1/contiki-ng-z1.a(shell-commands.)
 .rodata.cmd_rpl_local_repair
                0x000000000000ef27       0x21 build/z1/contiki-ng-z1.a(shell-commands.)
 .rodata.cmd_macaddr
                0x000000000000ef48       0x15 build/z1/contiki-ng-z1.a(shell-commands.)
 .rodata.cmd_tsch_status
                0x000000000000ef5d       0xfd build/z1/contiki-ng-z1.a(shell-commands.)
 .rodata.cmd_help
                0x000000000000f05a       0x19 build/z1/contiki-ng-z1.a(shell-commands.)
 .rodata.cmd_tsch_schedule
                0x000000000000f073       0x9c build/z1/contiki-ng-z1.a(shell-commands.)
 .rodata.cmd_tsch_set_coordinator
                0x000000000000f10f       0x9c build/z1/contiki-ng-z1.a(shell-commands.)
 .rodata.cmd_rpl_nbr
                0x000000000000f1ab       0x25 build/z1/contiki-ng-z1.a(shell-commands.)
 .rodata.cmd_ipaddr
                0x000000000000f1d0       0x1a build/z1/contiki-ng-z1.a(shell-commands.)
 .rodata.cmd_rpl_status
                0x000000000000f1ea      0x1ad build/z1/contiki-ng-z1.a(shell-commands.)
 .rodata.cmd_rpl_refresh_routes
                0x000000000000f397       0x1b build/z1/contiki-ng-z1.a(shell-commands.)
 .rodata.cmd_rpl_set_root
                0x000000000000f3b2       0xab build/z1/contiki-ng-z1.a(shell-commands.)
 .rodata.cmd_routes
                0x000000000000f45d       0x81 build/z1/contiki-ng-z1.a(shell-commands.)
 .rodata.cmd_ping
                0x000000000000f4de       0x91 build/z1/contiki-ng-z1.a(shell-commands.)
 .rodata.cmd_ip_neighbors
                0x000000000000f56f       0x4e build/z1/contiki-ng-z1.a(shell-commands.)
 .rodata.shell_output_log_levels
                0x000000000000f5bd       0x20 build/z1/contiki-ng-z1.a(shell-commands.)
 .rodata.cmd_log
                0x000000000000f5dd        0x4 build/z1/contiki-ng-z1.a(shell-commands.)
 .rodata.cmd_reboot
                0x000000000000f5e1        0xb build/z1/contiki-ng-z1.a(shell-commands.)
 .rodata        0x000000000000f5ec      0x54c build/z1/contiki-ng-z1.a(shell-commands.)
 .rodata.builtin_shell_commands
                0x000000000000fb38       0x90 build/z1/contiki-ng-z1.a(shell-commands.)
                0x000000000000fb38                builtin_shell_commands
 .rodata.CSWTCH.37
                0x000000000000fbc8        0x8 build/z1/contiki-ng-z1.a(shell-commands.)
 .rodata.CSWTCH.40
                0x000000000000fbd0        0x4 build/z1/contiki-ng-z1.a(shell-commands.)
 .rodata.CSWTCH.34
                0x000000000000fbd4        0x8 build/z1/contiki-ng-z1.a(shell-commands.)
 .rodata.CSWTCH.31
                0x000000000000fbdc        0xa build/z1/contiki-ng-z1.a(shell-commands.)
 *fill*         0x000000000000fbe6        0x2 00
 .rodata.frame802154e_parse_information_elements
                0x000000000000fbe8       0x14 build/z1/contiki-ng-z1.a(frame802154e-ie)
 .rodata.framer_802154
                0x000000000000fbfc        0xc build/z1/contiki-ng-z1.a(framer-802154.o)
                0x000000000000fbfc                framer_802154
 .rodata.CSWTCH.16
                0x000000000000fc08        0x2 build/z1/contiki-ng-z1.a(frame802154.o)
 .rodata.tsch_timeslot_timing_us_15000
                0x000000000000fc0a       0x18 build/z1/contiki-ng-z1.a(cc2420-tsch-15m)
                0x000000000000fc0a                tsch_timeslot_timing_us_15000
 .rodata.uip_sr_link_snprint
                0x000000000000fc22       0x44 build/z1/contiki-ng-z1.a(uip-sr.o)
 .rodata        0x000000000000fc66        0x7 build/z1/contiki-ng-z1.a(button-sensor.o)
 *fill*         0x000000000000fc6d        0x1 00
 .rodata.button_sensor
                0x000000000000fc6e        0xe build/z1/contiki-ng-z1.a(button-sensor.o)
                0x000000000000fc6e                button_sensor
 .rodata        0x000000000000fc7c      0x100 /opt/compiler/mspgcc-4.7.3/bin/../lib/gcc/msp430/4.7.3/mcpu-430x/mmpy-16/msr20/mc20/libgcc.a(_clz.o)
                0x000000000000fc7c                __clz_tab
 .rodata.vuprintf
                0x000000000000fd7c        0x7 /opt/compiler/mspgcc-4.7.3/bin/../lib/gcc/msp430/4.7.3/../../../../msp430/lib/mcpu-430x/mmpy-16/msr20/mc20/libc.a(vuprintf.o)
 *(.near.rodata .near.rodata.*)
                0x000000000000fd84                . = ALIGN (0x2)
                0x000000000000fd84                _etext = .

.data           0x0000000000001100      0x236 load address 0x000000000000fd84
                0x0000000000001100                . = ALIGN (0x2)
                0x0000000000001100                __data_start = .
 *(.data .data.* .gnu.linkonce.d.*)
 .data.udp_server_process
                0x0000000000001100        0xc udp-server.o
                0x0000000000001100                udp_server_process
 .data.cur_break
                0x000000000000110c        0x2 build/z1/contiki-ng-z1.a(msp430.o)
 .data.serial_shell_process
                0x000000000000110e        0xc build/z1/contiki-ng-z1.a(serial-shell.o)
                0x000000000000110e                serial_shell_process
 .data.unicast_per_neighbor_rpl_ns
                0x000000000000111a       0x16 build/z1/contiki-ng-z1.a(orchestra-rule-)
                0x000000000000111a                unicast_per_neighbor_rpl_ns
 .data.default_common
                0x0000000000001130       0x16 build/z1/contiki-ng-z1.a(orchestra-rule-)
                0x0000000000001130                default_common
 .data.all_rules
                0x0000000000001146        0x6 build/z1/contiki-ng-z1.a(orchestra.o)
                0x0000000000001146                all_rules
 .data.orchestra_sniffer
                0x000000000000114c        0xa build/z1/contiki-ng-z1.a(orchestra.o)
 .data.eb_per_time_source
                0x0000000000001156       0x16 build/z1/contiki-ng-z1.a(orchestra-rule-)
                0x0000000000001156                eb_per_time_source
 .data.ctimer_process
                0x000000000000116c        0xc build/z1/contiki-ng-z1.a(ctimer.o)
                0x000000000000116c                ctimer_process
 .data.etimer_process
                0x0000000000001178        0xc build/z1/contiki-ng-z1.a(etimer.o)
                0x0000000000001178                etimer_process
 .data.all_modules
                0x0000000000001184       0x4e build/z1/contiki-ng-z1.a(log.o)
                0x0000000000001184                all_modules
 .data.curr_log_level_main
                0x00000000000011d2        0x2 build/z1/contiki-ng-z1.a(log.o)
                0x00000000000011d2                curr_log_level_main
 .data.stack_check_process
                0x00000000000011d4        0xc build/z1/contiki-ng-z1.a(stack-check.o)
                0x00000000000011d4                stack_check_process
 .data.buframmem
                0x00000000000011e0        0x8 build/z1/contiki-ng-z1.a(queuebuf.o)
 .data.bufmem   0x00000000000011e8        0x8 build/z1/contiki-ng-z1.a(queuebuf.o)
 .data.tsch_pending_events_process
                0x00000000000011f0        0xc build/z1/contiki-ng-z1.a(tsch.o)
                0x00000000000011f0                tsch_pending_events_process
 .data.tsch_send_eb_process
                0x00000000000011fc        0xc build/z1/contiki-ng-z1.a(tsch.o)
                0x00000000000011fc                tsch_send_eb_process
 .data.tsch_process
                0x0000000000001208        0xc build/z1/contiki-ng-z1.a(tsch.o)
                0x0000000000001208                tsch_process
 .data.packet_generation_rate
                0x0000000000001214        0x4 build/z1/contiki-ng-z1.a(tsch.o)
                0x0000000000001214                packet_generation_rate
 .data.neighbor_memb
                0x0000000000001218        0x8 build/z1/contiki-ng-z1.a(tsch-queue.o)
 .data.packet_memb
                0x0000000000001220        0x8 build/z1/contiki-ng-z1.a(tsch-queue.o)
 .data.slotframe_memb
                0x0000000000001228        0x8 build/z1/contiki-ng-z1.a(tsch-schedule.o)
 .data.link_memb
                0x0000000000001230        0x8 build/z1/contiki-ng-z1.a(tsch-schedule.o)
 .data.packet_ready.4215
                0x0000000000001238        0x2 build/z1/contiki-ng-z1.a(tsch-slot-opera)
 .data.defaultroutermemb
                0x000000000000123a        0x8 build/z1/contiki-ng-z1.a(uip-ds6-route.o)
 .data.tcpip_process
                0x0000000000001242        0xc build/z1/contiki-ng-z1.a(tcpip.o)
                0x0000000000001242                tcpip_process
 .data.ds6_neighbors_struct
                0x000000000000124e        0xa build/z1/contiki-ng-z1.a(uip-ds6-nbr.o)
 .data.ns_input_handler
                0x0000000000001258        0x8 build/z1/contiki-ng-z1.a(uip-nd6.o)
 .data.simple_udp_process
                0x0000000000001260        0xc build/z1/contiki-ng-z1.a(simple-udp.o)
                0x0000000000001260                simple_udp_process
 .data.rpl_neighbors
                0x000000000000126c        0x2 build/z1/contiki-ng-z1.a(rpl-neighbor.o)
                0x000000000000126c                rpl_neighbors
 .data.rpl_neighbors_struct
                0x000000000000126e        0xa build/z1/contiki-ng-z1.a(rpl-neighbor.o)
 .data.maximum_number_of_children
                0x0000000000001278        0x1 build/z1/contiki-ng-z1.a(rpl.o)
                0x0000000000001278                maximum_number_of_children
 *fill*         0x0000000000001279        0x1 00
 .data.rpl_mrhof
                0x000000000000127a       0x22 build/z1/contiki-ng-z1.a(rpl-mrhof.o)
                0x000000000000127a                rpl_mrhof
 .data.dis_handler
                0x000000000000129c        0x8 build/z1/contiki-ng-z1.a(rpl-icmp6.o)
 .data.dio_handler
                0x00000000000012a4        0x8 build/z1/contiki-ng-z1.a(rpl-icmp6.o)
 .data.dao_handler
                0x00000000000012ac        0x8 build/z1/contiki-ng-z1.a(rpl-icmp6.o)
 .data.dao_ack_handler
                0x00000000000012b4        0x8 build/z1/contiki-ng-z1.a(rpl-icmp6.o)
 .data.cc2420_process
                0x00000000000012bc        0xc build/z1/contiki-ng-z1.a(cc2420.o)
                0x00000000000012bc                cc2420_process
 .data.send_on_cca
                0x00000000000012c8        0x1 build/z1/contiki-ng-z1.a(cc2420.o)
 *fill*         0x00000000000012c9        0x1 00
 .data.sensors_process
                0x00000000000012ca        0xc build/z1/contiki-ng-z1.a(sensors.o)
                0x00000000000012ca                sensors_process
 .data.sensors  0x00000000000012d6        0x8 build/z1/contiki-ng-z1.a(z1-sensors.o)
                0x00000000000012d6                sensors
 .data.accmeter_process
                0x00000000000012de        0xc build/z1/contiki-ng-z1.a(adxl345.o)
                0x00000000000012de                accmeter_process
 .data.adxl345_default_settings
                0x00000000000012ea       0x16 build/z1/contiki-ng-z1.a(adxl345.o)
 .data.builtin_shell_command_set
                0x0000000000001300        0x4 build/z1/contiki-ng-z1.a(shell-commands.)
 .data.neighbor_addr_mem
                0x0000000000001304        0x8 build/z1/contiki-ng-z1.a(nbr-table.o)
 .data.link_stats_struct
                0x000000000000130c        0xa build/z1/contiki-ng-z1.a(link-stats.o)
 .data.mac_pan_id
                0x0000000000001316        0x2 build/z1/contiki-ng-z1.a(frame802154.o)
 .data.echo_request_handler
                0x0000000000001318        0x8 build/z1/contiki-ng-z1.a(uip-icmp6.o)
 .data.echo_reply_handler
                0x0000000000001320        0x8 build/z1/contiki-ng-z1.a(uip-icmp6.o)
 .data.nodememb
                0x0000000000001328        0x8 build/z1/contiki-ng-z1.a(uip-sr.o)
 .data.prescale_lsb
                0x0000000000001330        0x1 build/z1/contiki-ng-z1.a(i2cmaster.o)
                0x0000000000001330                prescale_lsb
 *fill*         0x0000000000001331        0x1 00
 .data.next     0x0000000000001332        0x4 /opt/compiler/mspgcc-4.7.3/bin/../lib/gcc/msp430/4.7.3/../../../../msp430/lib/mcpu-430x/mmpy-16/msr20/mc20/libc.a(rand.o)
 *(.near.data .near.data.*)
                0x0000000000001336                . = ALIGN (0x2)
                0x0000000000001336                _edata = .
                0x000000000000fd84                __data_load_start = LOADADDR (.data)
                0x0000000000000236                __data_size = SIZEOF (.data)

.bss            0x0000000000001336     0x15d8 load address 0x000000000000ffba
                0x0000000000001336                __bss_start = .
 *(.bss .bss.*)
 .bss.udp_conn  0x0000000000001336       0x1e udp-server.o
 .bss.last_tar  0x0000000000001354        0x2 build/z1/contiki-ng-z1.a(clock.o)
 .bss.count     0x0000000000001356        0x4 build/z1/contiki-ng-z1.a(clock.o)
 .bss.seconds   0x000000000000135a        0x4 build/z1/contiki-ng-z1.a(clock.o)
 .bss.counter   0x000000000000135e        0x2 build/z1/contiki-ng-z1.a(watchdog.o)
 .bss.shell_input_pt.2474
                0x0000000000001360        0x2 build/z1/contiki-ng-z1.a(serial-shell.o)
 .bss.slotframe_handle
                0x0000000000001362        0x2 build/z1/contiki-ng-z1.a(orchestra-rule-)
 .bss.sf_unicast
                0x0000000000001364        0x2 build/z1/contiki-ng-z1.a(orchestra-rule-)
 .bss.slotframe_handle
                0x0000000000001366        0x2 build/z1/contiki-ng-z1.a(orchestra-rule-)
 .bss.orchestra_parent_knows_us
                0x0000000000001368        0x2 build/z1/contiki-ng-z1.a(orchestra.o)
                0x0000000000001368                orchestra_parent_knows_us
 .bss.slotframe_handle
                0x000000000000136a        0x2 build/z1/contiki-ng-z1.a(orchestra-rule-)
 .bss.sf_eb     0x000000000000136c        0x2 build/z1/contiki-ng-z1.a(orchestra-rule-)
 .bss.channel_offset
                0x000000000000136e        0x2 build/z1/contiki-ng-z1.a(orchestra-rule-)
 .bss.initialized
                0x0000000000001370        0x1 build/z1/contiki-ng-z1.a(ctimer.o)
 *fill*         0x0000000000001371        0x1 00
 .bss.ctimer_list_list
                0x0000000000001372        0x2 build/z1/contiki-ng-z1.a(ctimer.o)
 .bss.timerlist
                0x0000000000001374        0x2 build/z1/contiki-ng-z1.a(etimer.o)
 .bss.next_expiration
                0x0000000000001376        0x4 build/z1/contiki-ng-z1.a(etimer.o)
 .bss.curr_log_level_lwm2m
                0x000000000000137a        0x2 build/z1/contiki-ng-z1.a(log.o)
                0x000000000000137a                curr_log_level_lwm2m
 .bss.curr_log_level_snmp
                0x000000000000137c        0x2 build/z1/contiki-ng-z1.a(log.o)
                0x000000000000137c                curr_log_level_snmp
 .bss.curr_log_level_coap
                0x000000000000137e        0x2 build/z1/contiki-ng-z1.a(log.o)
                0x000000000000137e                curr_log_level_coap
 .bss.curr_log_level_6top
                0x0000000000001380        0x2 build/z1/contiki-ng-z1.a(log.o)
                0x0000000000001380                curr_log_level_6top
 .bss.curr_log_level_framer
                0x0000000000001382        0x2 build/z1/contiki-ng-z1.a(log.o)
                0x0000000000001382                curr_log_level_framer
 .bss.curr_log_level_mac
                0x0000000000001384        0x2 build/z1/contiki-ng-z1.a(log.o)
                0x0000000000001384                curr_log_level_mac
 .bss.curr_log_level_nullnet
                0x0000000000001386        0x2 build/z1/contiki-ng-z1.a(log.o)
                0x0000000000001386                curr_log_level_nullnet
 .bss.curr_log_level_6lowpan
                0x0000000000001388        0x2 build/z1/contiki-ng-z1.a(log.o)
                0x0000000000001388                curr_log_level_6lowpan
 .bss.curr_log_level_ipv6
                0x000000000000138a        0x2 build/z1/contiki-ng-z1.a(log.o)
                0x000000000000138a                curr_log_level_ipv6
 .bss.curr_log_level_tcpip
                0x000000000000138c        0x2 build/z1/contiki-ng-z1.a(log.o)
                0x000000000000138c                curr_log_level_tcpip
 .bss.curr_log_level_rpl
                0x000000000000138e        0x2 build/z1/contiki-ng-z1.a(log.o)
                0x000000000000138e                curr_log_level_rpl
 .bss.next_rtimer
                0x0000000000001390        0x2 build/z1/contiki-ng-z1.a(rtimer.o)
 .bss.node_id   0x0000000000001392        0x2 build/z1/contiki-ng-z1.a(node-id.o)
                0x0000000000001392                node_id
 .bss.poll_requested
                0x0000000000001394        0x1 build/z1/contiki-ng-z1.a(process.o)
 *fill*         0x0000000000001395        0x1 00
 .bss.process_current
                0x0000000000001396        0x2 build/z1/contiki-ng-z1.a(process.o)
                0x0000000000001396                process_current
 .bss.process_list
                0x0000000000001398        0x2 build/z1/contiki-ng-z1.a(process.o)
                0x0000000000001398                process_list
 .bss.lastevent
                0x000000000000139a        0x1 build/z1/contiki-ng-z1.a(process.o)
 .bss.fevent    0x000000000000139b        0x1 build/z1/contiki-ng-z1.a(process.o)
 .bss.nevents   0x000000000000139c        0x1 build/z1/contiki-ng-z1.a(process.o)
 *fill*         0x000000000000139d        0x1 00
 .bss.events    0x000000000000139e       0x30 build/z1/contiki-ng-z1.a(process.o)
 .bss.stack_top.2453
                0x00000000000013ce        0x2 build/z1/contiki-ng-z1.a(stack-check.o)
 .bss.et.2475   0x00000000000013d0        0xc build/z1/contiki-ng-z1.a(stack-check.o)
 .bss.buframmem_memb_used
                0x00000000000013dc        0x4 build/z1/contiki-ng-z1.a(queuebuf.o)
 .bss.buframmem_memb_mem
                0x00000000000013e0      0x2c8 build/z1/contiki-ng-z1.a(queuebuf.o)
 .bss.bufmem_memb_used
                0x00000000000016a8        0x4 build/z1/contiki-ng-z1.a(queuebuf.o)
 .bss.bufmem_memb_mem
                0x00000000000016ac        0x8 build/z1/contiki-ng-z1.a(queuebuf.o)
 .bss.bufptr    0x00000000000016b4        0x2 build/z1/contiki-ng-z1.a(packetbuf.o)
 .bss.buflen    0x00000000000016b6        0x2 build/z1/contiki-ng-z1.a(packetbuf.o)
 .bss.hdrlen    0x00000000000016b8        0x1 build/z1/contiki-ng-z1.a(packetbuf.o)
 *fill*         0x00000000000016b9        0x1 00
 .bss.packetbuf_aligned
                0x00000000000016ba       0x80 build/z1/contiki-ng-z1.a(packetbuf.o)
 .bss.ip_processor_list_list
                0x000000000000173a        0x2 build/z1/contiki-ng-z1.a(netstack.o)
 .bss.keepalive_status
                0x000000000000173c        0x2 build/z1/contiki-ng-z1.a(tsch.o)
 .bss.tsch_is_pan_secured
                0x000000000000173e        0x2 build/z1/contiki-ng-z1.a(tsch.o)
                0x000000000000173e                tsch_is_pan_secured
 .bss.tsch_association_count
                0x0000000000001740        0x2 build/z1/contiki-ng-z1.a(tsch.o)
                0x0000000000001740                tsch_association_count
 .bss.tsch_is_associated
                0x0000000000001742        0x2 build/z1/contiki-ng-z1.a(tsch.o)
                0x0000000000001742                tsch_is_associated
 .bss.tsch_is_coordinator
                0x0000000000001744        0x2 build/z1/contiki-ng-z1.a(tsch.o)
                0x0000000000001744                tsch_is_coordinator
 .bss.tsch_is_initialized
                0x0000000000001746        0x2 build/z1/contiki-ng-z1.a(tsch.o)
                0x0000000000001746                tsch_is_initialized
 .bss.tsch_is_started
                0x0000000000001748        0x2 build/z1/contiki-ng-z1.a(tsch.o)
                0x0000000000001748                tsch_is_started
 .bss.allocate_slot_for_packet_generation
                0x000000000000174a        0x2 build/z1/contiki-ng-z1.a(tsch.o)
                0x000000000000174a                allocate_slot_for_packet_generation
 .bss.current_number_slots_for_packet_generation
                0x000000000000174c        0x2 build/z1/contiki-ng-z1.a(tsch.o)
                0x000000000000174c                current_number_slots_for_packet_generation
 .bss.current_packet_generation_rate
                0x000000000000174e        0x4 build/z1/contiki-ng-z1.a(tsch.o)
                0x000000000000174e                current_packet_generation_rate
 .bss.free_uplink_timeslots
                0x0000000000001752        0x2 build/z1/contiki-ng-z1.a(tsch.o)
                0x0000000000001752                free_uplink_timeslots
 .bss.required_slots
                0x0000000000001754        0x2 build/z1/contiki-ng-z1.a(tsch.o)
                0x0000000000001754                required_slots
 .bss.shared_timeslot_children
                0x0000000000001756        0x1 build/z1/contiki-ng-z1.a(tsch.o)
                0x0000000000001756                shared_timeslot_children
 .bss.check_shared_timeslot
                0x0000000000001757        0x1 build/z1/contiki-ng-z1.a(tsch.o)
                0x0000000000001757                check_shared_timeslot
 .bss.shared_timeslot_parent
                0x0000000000001758        0x1 build/z1/contiki-ng-z1.a(tsch.o)
                0x0000000000001758                shared_timeslot_parent
 .bss.parent_channel
                0x0000000000001759        0x1 build/z1/contiki-ng-z1.a(tsch.o)
                0x0000000000001759                parent_channel
 .bss.children_channel
                0x000000000000175a        0x1 build/z1/contiki-ng-z1.a(tsch.o)
                0x000000000000175a                children_channel
 *fill*         0x000000000000175b        0x1 00
 .bss.tsch_current_eb_period
                0x000000000000175c        0x4 build/z1/contiki-ng-z1.a(tsch.o)
 .bss.tsch_current_ka_timeout
                0x0000000000001760        0x4 build/z1/contiki-ng-z1.a(tsch.o)
 .bss.scan_timer.4368
                0x0000000000001764        0xc build/z1/contiki-ng-z1.a(tsch.o)
 .bss.current_channel_since.4369
                0x0000000000001770        0x4 build/z1/contiki-ng-z1.a(tsch.o)
 .bss.current_channel.4370
                0x0000000000001774        0x1 build/z1/contiki-ng-z1.a(tsch.o)
 *fill*         0x0000000000001775        0x1 00
 .bss.input_eb.4367
                0x0000000000001776       0x8c build/z1/contiki-ng-z1.a(tsch.o)
 .bss.tsch_default_timing_us
                0x0000000000001802        0x2 build/z1/contiki-ng-z1.a(tsch.o)
 .bss.scan_pt.4392
                0x0000000000001804        0x2 build/z1/contiki-ng-z1.a(tsch.o)
 .bss.eb_timer.4406
                0x0000000000001806        0xc build/z1/contiki-ng-z1.a(tsch.o)
 .bss.tsch_packet_seqno
                0x0000000000001812        0x1 build/z1/contiki-ng-z1.a(tsch.o)
 *fill*         0x0000000000001813        0x1 00
 .bss.last_eb_nbr_addr
                0x0000000000001814        0x8 build/z1/contiki-ng-z1.a(tsch.o)
 .bss.last_eb_nbr_jp
                0x000000000000181c        0x1 build/z1/contiki-ng-z1.a(tsch.o)
 *fill*         0x000000000000181d        0x1 00
 .bss.keepalive_timer
                0x000000000000181e       0x16 build/z1/contiki-ng-z1.a(tsch.o)
 .bss.neighbor_list_list
                0x0000000000001834        0x2 build/z1/contiki-ng-z1.a(tsch-queue.o)
 .bss.neighbor_memb_memb_used
                0x0000000000001836        0x7 build/z1/contiki-ng-z1.a(tsch-queue.o)
 *fill*         0x000000000000183d        0x1 00
 .bss.neighbor_memb_memb_mem
                0x000000000000183e       0xe0 build/z1/contiki-ng-z1.a(tsch-queue.o)
 .bss.packet_memb_memb_used
                0x000000000000191e        0x4 build/z1/contiki-ng-z1.a(tsch-queue.o)
 .bss.packet_memb_memb_mem
                0x0000000000001922       0x38 build/z1/contiki-ng-z1.a(tsch-queue.o)
 .bss.slotframe_list_list
                0x000000000000195a        0x2 build/z1/contiki-ng-z1.a(tsch-schedule.o)
 .bss.current_link_handle.4319
                0x000000000000195c        0x2 build/z1/contiki-ng-z1.a(tsch-schedule.o)
 .bss.buffer.4286
                0x000000000000195e       0x14 build/z1/contiki-ng-z1.a(tsch-schedule.o)
 .bss.slotframe_memb_memb_used
                0x0000000000001972        0x4 build/z1/contiki-ng-z1.a(tsch-schedule.o)
 .bss.slotframe_memb_memb_mem
                0x0000000000001976       0x30 build/z1/contiki-ng-z1.a(tsch-schedule.o)
 .bss.link_memb_memb_used
                0x00000000000019a6       0x20 build/z1/contiki-ng-z1.a(tsch-schedule.o)
 .bss.link_memb_memb_mem
                0x00000000000019c6      0x300 build/z1/contiki-ng-z1.a(tsch-schedule.o)
 .bss.tsch_current_burst_count
                0x0000000000001cc6        0x2 build/z1/contiki-ng-z1.a(tsch-slot-opera)
                0x0000000000001cc6                tsch_current_burst_count
 .bss.current_link
                0x0000000000001cc8        0x2 build/z1/contiki-ng-z1.a(tsch-slot-opera)
                0x0000000000001cc8                current_link
 .bss.tsch_in_slot_operation
                0x0000000000001cca        0x2 build/z1/contiki-ng-z1.a(tsch-slot-opera)
 .bss.current_slot_start
                0x0000000000001ccc        0x2 build/z1/contiki-ng-z1.a(tsch-slot-opera)
 .bss.tsch_lock_requested
                0x0000000000001cce        0x2 build/z1/contiki-ng-z1.a(tsch-slot-opera)
 .bss.tsch_locked
                0x0000000000001cd0        0x2 build/z1/contiki-ng-z1.a(tsch-slot-opera)
 .bss.last_sync_asn
                0x0000000000001cd2        0x6 build/z1/contiki-ng-z1.a(tsch-slot-opera)
 .bss.backup_link
                0x0000000000001cd8        0x2 build/z1/contiki-ng-z1.a(tsch-slot-opera)
 .bss.slot_operation_timer.4329
                0x0000000000001cda        0x8 build/z1/contiki-ng-z1.a(tsch-slot-opera)
 .bss.slot_operation_pt
                0x0000000000001ce2        0x2 build/z1/contiki-ng-z1.a(tsch-slot-opera)
 .bss.drift_correction
                0x0000000000001ce4        0x4 build/z1/contiki-ng-z1.a(tsch-slot-opera)
 .bss.is_drift_correction_used
                0x0000000000001ce8        0x1 build/z1/contiki-ng-z1.a(tsch-slot-opera)
 *fill*         0x0000000000001ce9        0x1 00
 .bss.current_neighbor
                0x0000000000001cea        0x2 build/z1/contiki-ng-z1.a(tsch-slot-opera)
 .bss.current_packet
                0x0000000000001cec        0x2 build/z1/contiki-ng-z1.a(tsch-slot-opera)
 .bss.burst_link_scheduled
                0x0000000000001cee        0x2 build/z1/contiki-ng-z1.a(tsch-slot-opera)
 .bss.slot_tx_pt.4312
                0x0000000000001cf0        0x2 build/z1/contiki-ng-z1.a(tsch-slot-opera)
 .bss.slot_rx_pt.4314
                0x0000000000001cf2        0x2 build/z1/contiki-ng-z1.a(tsch-slot-opera)
 .bss.dequeued_index.4214
                0x0000000000001cf4        0x2 build/z1/contiki-ng-z1.a(tsch-slot-opera)
 .bss.mac_tx_status.4212
                0x0000000000001cf6        0x1 build/z1/contiki-ng-z1.a(tsch-slot-opera)
 *fill*         0x0000000000001cf7        0x1 00
 .bss.packet.4218
                0x0000000000001cf8        0x2 build/z1/contiki-ng-z1.a(tsch-slot-opera)
 .bss.packet_len.4219
                0x0000000000001cfa        0x1 build/z1/contiki-ng-z1.a(tsch-slot-opera)
 .bss.do_wait_for_ack.4221
                0x0000000000001cfb        0x1 build/z1/contiki-ng-z1.a(tsch-slot-opera)
 .bss.burst_link_requested.4223
                0x0000000000001cfc        0x2 build/z1/contiki-ng-z1.a(tsch-slot-opera)
 .bss.seqno.4220
                0x0000000000001cfe        0x1 build/z1/contiki-ng-z1.a(tsch-slot-opera)
 *fill*         0x0000000000001cff        0x1 00
 .bss.tx_start_time.4222
                0x0000000000001d00        0x2 build/z1/contiki-ng-z1.a(tsch-slot-opera)
 .bss.tx_duration.4224
                0x0000000000001d02        0x2 build/z1/contiki-ng-z1.a(tsch-slot-opera)
 .bss.input_index.4264
                0x0000000000001d04        0x2 build/z1/contiki-ng-z1.a(tsch-slot-opera)
 .bss.input_queue_drop.4265
                0x0000000000001d06        0x2 build/z1/contiki-ng-z1.a(tsch-slot-opera)
 .bss.expected_rx_time.4271
                0x0000000000001d08        0x2 build/z1/contiki-ng-z1.a(tsch-slot-opera)
 .bss.rx_start_time.4270
                0x0000000000001d0a        0x2 build/z1/contiki-ng-z1.a(tsch-slot-opera)
 .bss.current_input.4268
                0x0000000000001d0c        0x2 build/z1/contiki-ng-z1.a(tsch-slot-opera)
 .bss.frame.4292
                0x0000000000001d0e       0x38 build/z1/contiki-ng-z1.a(tsch-slot-opera)
 .bss.header_len.4291
                0x0000000000001d46        0x2 build/z1/contiki-ng-z1.a(tsch-slot-opera)
 .bss.source_address.4262
                0x0000000000001d48        0x8 build/z1/contiki-ng-z1.a(tsch-slot-opera)
 .bss.destination_address.4263
                0x0000000000001d50        0x8 build/z1/contiki-ng-z1.a(tsch-slot-opera)
 .bss.frame_valid.4290
                0x0000000000001d58        0x2 build/z1/contiki-ng-z1.a(tsch-slot-opera)
 .bss.packet_duration.4272
                0x0000000000001d5a        0x2 build/z1/contiki-ng-z1.a(tsch-slot-opera)
 .bss.estimated_drift.4269
                0x0000000000001d5c        0x4 build/z1/contiki-ng-z1.a(tsch-slot-opera)
 .bss.ack_buf.4296
                0x0000000000001d60       0x80 build/z1/contiki-ng-z1.a(tsch-slot-opera)
 .bss.ack_len.4297
                0x0000000000001de0        0x2 build/z1/contiki-ng-z1.a(tsch-slot-opera)
 .bss.eackbuf_attrs
                0x0000000000001de2       0x20 build/z1/contiki-ng-z1.a(tsch-packet.o)
 .bss.drift_ppm
                0x0000000000001e02        0x4 build/z1/contiki-ng-z1.a(tsch-adaptive-t)
 .bss.asn_since_last_learning
                0x0000000000001e06        0x4 build/z1/contiki-ng-z1.a(tsch-adaptive-t)
 .bss.compensated_ticks
                0x0000000000001e0a        0x4 build/z1/contiki-ng-z1.a(tsch-adaptive-t)
 .bss.timesync_entry_count
                0x0000000000001e0e        0x1 build/z1/contiki-ng-z1.a(tsch-adaptive-t)
 .bss.pos.4060  0x0000000000001e0f        0x1 build/z1/contiki-ng-z1.a(tsch-adaptive-t)
 .bss.buffer.4059
                0x0000000000001e10       0x20 build/z1/contiki-ng-z1.a(tsch-adaptive-t)
 .bss.remainder.4091
                0x0000000000001e30        0x4 build/z1/contiki-ng-z1.a(tsch-adaptive-t)
 .bss.tick_conversion_error.4092
                0x0000000000001e34        0x2 build/z1/contiki-ng-z1.a(tsch-adaptive-t)
 .bss.default_prefix
                0x0000000000001e36       0x10 build/z1/contiki-ng-z1.a(uip-ds6.o)
 .bss.loc_fipaddr
                0x0000000000001e46       0x10 build/z1/contiki-ng-z1.a(uip-ds6.o)
 .bss.locaddr   0x0000000000001e56        0x2 build/z1/contiki-ng-z1.a(uip-ds6.o)
 .bss.locprefix
                0x0000000000001e58        0x2 build/z1/contiki-ng-z1.a(uip-ds6.o)
 .bss.locmaddr  0x0000000000001e5a        0x2 build/z1/contiki-ng-z1.a(uip-ds6.o)
 .bss.defaultrouterlist_list
                0x0000000000001e5c        0x2 build/z1/contiki-ng-z1.a(uip-ds6-route.o)
 .bss.defaultroutermemb_memb_used
                0x0000000000001e5e        0x2 build/z1/contiki-ng-z1.a(uip-ds6-route.o)
 .bss.defaultroutermemb_memb_mem
                0x0000000000001e60       0x38 build/z1/contiki-ng-z1.a(uip-ds6-route.o)
 .bss.periodic  0x0000000000001e98        0xc build/z1/contiki-ng-z1.a(tcpip.o)
 .bss.uip_last_proto
                0x0000000000001ea4        0x1 build/z1/contiki-ng-z1.a(uip6.o)
                0x0000000000001ea4                uip_last_proto
 *fill*         0x0000000000001ea5        0x1 00
 .bss.uip_ext_len
                0x0000000000001ea6        0x2 build/z1/contiki-ng-z1.a(uip6.o)
                0x0000000000001ea6                uip_ext_len
 .bss.uip_ext_bitmap
                0x0000000000001ea8        0x1 build/z1/contiki-ng-z1.a(uip6.o)
                0x0000000000001ea8                uip_ext_bitmap
 *fill*         0x0000000000001ea9        0x1 00
 .bss.lastport  0x0000000000001eaa        0x2 build/z1/contiki-ng-z1.a(uip6.o)
 .bss._ds6_neighbors_mem
                0x0000000000001eac       0x5a build/z1/contiki-ng-z1.a(uip-ds6-nbr.o)
 .bss.nd6_opt_llao
                0x0000000000001f06        0x2 build/z1/contiki-ng-z1.a(uip-nd6.o)
 .bss.nd6_opt_offset
                0x0000000000001f08        0x1 build/z1/contiki-ng-z1.a(uip-nd6.o)
 *fill*         0x0000000000001f09        0x1 00
 .bss.nbr       0x0000000000001f0a        0x2 build/z1/contiki-ng-z1.a(uip-nd6.o)
 .bss.addr      0x0000000000001f0c        0x2 build/z1/contiki-ng-z1.a(uip-nd6.o)
 .bss.databuffer
                0x0000000000001f0e       0xa0 build/z1/contiki-ng-z1.a(simple-udp.o)
 .bss.started   0x0000000000001fae        0x1 build/z1/contiki-ng-z1.a(simple-udp.o)
 *fill*         0x0000000000001faf        0x1 00
 .bss.callback  0x0000000000001fb0        0x2 build/z1/contiki-ng-z1.a(sicslowpan.o)
 .bss.addr_contexts
                0x0000000000001fb2        0xa build/z1/contiki-ng-z1.a(sicslowpan.o)
 .bss.last_rssi
                0x0000000000001fbc        0x2 build/z1/contiki-ng-z1.a(sicslowpan.o)
 .bss.uncomp_hdr_len
                0x0000000000001fbe        0x1 build/z1/contiki-ng-z1.a(sicslowpan.o)
 .bss.packetbuf_hdr_len
                0x0000000000001fbf        0x1 build/z1/contiki-ng-z1.a(sicslowpan.o)
 .bss.packetbuf_ptr
                0x0000000000001fc0        0x2 build/z1/contiki-ng-z1.a(sicslowpan.o)
 .bss.mac_max_payload
                0x0000000000001fc2        0x2 build/z1/contiki-ng-z1.a(sicslowpan.o)
 .bss.hc06_ptr  0x0000000000001fc4        0x2 build/z1/contiki-ng-z1.a(sicslowpan.o)
 .bss.context   0x0000000000001fc6        0x2 build/z1/contiki-ng-z1.a(sicslowpan.o)
 .bss.last_tx_status
                0x0000000000001fc8        0x2 build/z1/contiki-ng-z1.a(sicslowpan.o)
 .bss.curr_page
                0x0000000000001fca        0x1 build/z1/contiki-ng-z1.a(sicslowpan.o)
 *fill*         0x0000000000001fcb        0x1 00
 .bss.packetbuf_payload_len
                0x0000000000001fcc        0x2 build/z1/contiki-ng-z1.a(sicslowpan.o)
 .bss._rpl_neighbors_mem
                0x0000000000001fce       0x28 build/z1/contiki-ng-z1.a(rpl-neighbor.o)
 .bss.dis_timer
                0x0000000000001ff6       0x16 build/z1/contiki-ng-z1.a(rpl-timers.o)
 .bss.periodic_timer
                0x000000000000200c       0x16 build/z1/contiki-ng-z1.a(rpl-timers.o)
 .bss.number_of_children
                0x0000000000002022        0x1 build/z1/contiki-ng-z1.a(rpl.o)
                0x0000000000002022                number_of_children
 .bss.rpl_leaf_only
                0x0000000000002023        0x1 build/z1/contiki-ng-z1.a(rpl.o)
 .bss.initialized.3685
                0x0000000000002024        0x1 build/z1/contiki-ng-z1.a(rpl-dag-root.o)
 *fill*         0x0000000000002025        0x1 00
 .bss.root_ipaddr.3674
                0x0000000000002026       0x10 build/z1/contiki-ng-z1.a(rpl-dag-root.o)
 .bss.poll_mode
                0x0000000000002036        0x1 build/z1/contiki-ng-z1.a(cc2420.o)
 *fill*         0x0000000000002037        0x1 00
 .bss.last_packet_timestamp
                0x0000000000002038        0x2 build/z1/contiki-ng-z1.a(cc2420.o)
 .bss.locked    0x000000000000203a        0x1 build/z1/contiki-ng-z1.a(cc2420.o)
 .bss.lock_on   0x000000000000203b        0x1 build/z1/contiki-ng-z1.a(cc2420.o)
 .bss.lock_off  0x000000000000203c        0x1 build/z1/contiki-ng-z1.a(cc2420.o)
 .bss.receive_on
                0x000000000000203d        0x1 build/z1/contiki-ng-z1.a(cc2420.o)
 .bss.was_on    0x000000000000203e        0x1 build/z1/contiki-ng-z1.a(cc2420.o)
 *fill*         0x000000000000203f        0x1 00
 .bss.prev_MDMCTRL1
                0x0000000000002040        0x2 build/z1/contiki-ng-z1.a(cc2420.o)
 .bss.prev_DACTST
                0x0000000000002042        0x2 build/z1/contiki-ng-z1.a(cc2420.o)
 .bss.channel   0x0000000000002044        0x2 build/z1/contiki-ng-z1.a(cc2420.o)
 .bss.num_sensors
                0x0000000000002046        0x1 build/z1/contiki-ng-z1.a(sensors.o)
 *fill*         0x0000000000002047        0x1 00
 .bss.i.2098    0x0000000000002048        0x2 build/z1/contiki-ng-z1.a(sensors.o)
 .bss.events.2099
                0x000000000000204a        0x2 build/z1/contiki-ng-z1.a(sensors.o)
 .bss.transmitting
                0x000000000000204c        0x1 build/z1/contiki-ng-z1.a(uart0.o)
 *fill*         0x000000000000204d        0x1 00
 .bss.uart0_input_handler
                0x000000000000204e        0x4 build/z1/contiki-ng-z1.a(uart0.o)
 .bss.enabled   0x0000000000002052        0x1 build/z1/contiki-ng-z1.a(adxl345.o)
 *fill*         0x0000000000002053        0x1 00
 .bss.int1_mask
                0x0000000000002054        0x2 build/z1/contiki-ng-z1.a(adxl345.o)
 .bss.int2_mask
                0x0000000000002056        0x2 build/z1/contiki-ng-z1.a(adxl345.o)
 .bss.suppressTimer1
                0x0000000000002058        0x8 build/z1/contiki-ng-z1.a(adxl345.o)
 .bss.suppressTimer2
                0x0000000000002060        0x8 build/z1/contiki-ng-z1.a(adxl345.o)
 .bss.enabled   0x0000000000002068        0x1 build/z1/contiki-ng-z1.a(tmp102.o)
 *fill*         0x0000000000002069        0x1 00
 .bss.args.4137
                0x000000000000206a        0x2 build/z1/contiki-ng-z1.a(shell.o)
 .bss.cmd_descr.4138
                0x000000000000206c        0x2 build/z1/contiki-ng-z1.a(shell.o)
 .bss.cmd_pt.4144
                0x000000000000206e        0x2 build/z1/contiki-ng-z1.a(shell.o)
 .bss.echo_reply_notification
                0x0000000000002070        0x6 build/z1/contiki-ng-z1.a(shell-commands.)
 .bss.curr_ping_output_func
                0x0000000000002076        0x4 build/z1/contiki-ng-z1.a(shell-commands.)
 .bss.curr_ping_ttl
                0x000000000000207a        0x1 build/z1/contiki-ng-z1.a(shell-commands.)
 *fill*         0x000000000000207b        0x1 00
 .bss.curr_ping_datalen
                0x000000000000207c        0x2 build/z1/contiki-ng-z1.a(shell-commands.)
 .bss.curr_ping_process
                0x000000000000207e        0x2 build/z1/contiki-ng-z1.a(shell-commands.)
 .bss.shell_command_sets_list
                0x0000000000002080        0x2 build/z1/contiki-ng-z1.a(shell-commands.)
 .bss.is_on.4442
                0x0000000000002082        0x2 build/z1/contiki-ng-z1.a(shell-commands.)
 .bss.is_secured.4443
                0x0000000000002084        0x2 build/z1/contiki-ng-z1.a(shell-commands.)
 .bss.is_on.4367
                0x0000000000002086        0x2 build/z1/contiki-ng-z1.a(shell-commands.)
 .bss.prefix.4368
                0x0000000000002088       0x10 build/z1/contiki-ng-z1.a(shell-commands.)
 .bss.remote_addr.4235
                0x0000000000002098       0x10 build/z1/contiki-ng-z1.a(shell-commands.)
 .bss.timeout_timer.4236
                0x00000000000020a8        0xc build/z1/contiki-ng-z1.a(shell-commands.)
 .bss.prev_level.4336
                0x00000000000020b4        0x2 build/z1/contiki-ng-z1.a(shell-commands.)
 .bss.level.4337
                0x00000000000020b6        0x2 build/z1/contiki-ng-z1.a(shell-commands.)
 .bss.num_tables
                0x00000000000020b8        0x2 build/z1/contiki-ng-z1.a(nbr-table.o)
 .bss.all_tables
                0x00000000000020ba       0x10 build/z1/contiki-ng-z1.a(nbr-table.o)
 .bss.used_map  0x00000000000020ca        0x5 build/z1/contiki-ng-z1.a(nbr-table.o)
 *fill*         0x00000000000020cf        0x1 00
 .bss.nbr_table_keys_list
                0x00000000000020d0        0x2 build/z1/contiki-ng-z1.a(nbr-table.o)
 .bss.locked_map
                0x00000000000020d2        0x5 build/z1/contiki-ng-z1.a(nbr-table.o)
 .bss.neighbor_addr_mem_memb_used
                0x00000000000020d7        0x5 build/z1/contiki-ng-z1.a(nbr-table.o)
 .bss.neighbor_addr_mem_memb_mem
                0x00000000000020dc       0x32 build/z1/contiki-ng-z1.a(nbr-table.o)
 .bss._link_stats_mem
                0x000000000000210e       0x32 build/z1/contiki-ng-z1.a(link-stats.o)
 .bss.received_seqnos
                0x0000000000002140       0xe0 build/z1/contiki-ng-z1.a(mac-sequence.o)
 .bss.initialized
                0x0000000000002220        0x1 build/z1/contiki-ng-z1.a(framer-802154.o)
 .bss.mac_dsn   0x0000000000002221        0x1 build/z1/contiki-ng-z1.a(framer-802154.o)
 .bss.uipbuf_attrs
                0x0000000000002222        0xc build/z1/contiki-ng-z1.a(uipbuf.o)
 .bss.uipbuf_default_attrs
                0x000000000000222e        0xc build/z1/contiki-ng-z1.a(uipbuf.o)
 .bss.input_handler_list_list
                0x000000000000223a        0x2 build/z1/contiki-ng-z1.a(uip-icmp6.o)
 .bss.tmp_ipaddr
                0x000000000000223c       0x10 build/z1/contiki-ng-z1.a(uip-icmp6.o)
 .bss.echo_reply_callback_list_list
                0x000000000000224c        0x2 build/z1/contiki-ng-z1.a(uip-icmp6.o)
 .bss.num_nodes
                0x000000000000224e        0x2 build/z1/contiki-ng-z1.a(uip-sr.o)
 .bss.nodelist_list
                0x0000000000002250        0x2 build/z1/contiki-ng-z1.a(uip-sr.o)
 .bss.nodememb_memb_used
                0x0000000000002252        0x8 build/z1/contiki-ng-z1.a(uip-sr.o)
 .bss.nodememb_memb_mem
                0x000000000000225a       0x90 build/z1/contiki-ng-z1.a(uip-sr.o)
 .bss.worst_rank_nbr_lladdr
                0x00000000000022ea        0x2 build/z1/contiki-ng-z1.a(rpl-nbr-policy.)
 .bss.worst_rank
                0x00000000000022ec        0x2 build/z1/contiki-ng-z1.a(rpl-nbr-policy.)
 .bss.num_parents
                0x00000000000022ee        0x2 build/z1/contiki-ng-z1.a(rpl-nbr-policy.)
 .bss.num_free  0x00000000000022f0        0x2 build/z1/contiki-ng-z1.a(rpl-nbr-policy.)
 .bss.tx_byte_tot
                0x00000000000022f2        0x1 build/z1/contiki-ng-z1.a(i2cmaster.o)
 .bss.rx_byte_tot
                0x00000000000022f3        0x1 build/z1/contiki-ng-z1.a(i2cmaster.o)
 .bss.prescale_msb
                0x00000000000022f4        0x1 build/z1/contiki-ng-z1.a(i2cmaster.o)
                0x00000000000022f4                prescale_msb
 *fill*         0x00000000000022f5        0x1 00
 .bss.debouncetimer
                0x00000000000022f6        0x8 build/z1/contiki-ng-z1.a(button-sensor.o)
 .bss.destination_
                0x00000000000022fe        0x2 /opt/compiler/mspgcc-4.7.3/bin/../lib/gcc/msp430/4.7.3/../../../../msp430/lib/mcpu-430x/mmpy-16/msr20/mc20/libc.a(sprintf.o)
 .bss.available_
                0x0000000000002300        0x2 /opt/compiler/mspgcc-4.7.3/bin/../lib/gcc/msp430/4.7.3/../../../../msp430/lib/mcpu-430x/mmpy-16/msr20/mc20/libc.a(sprintf.o)
 *(.near.bss .near.bss.*)
 *(COMMON)
 COMMON         0x0000000000002302        0x2 build/z1/contiki-ng-z1.a(msp430.o)
                0x0000000000002302                msp430_dco_required
 COMMON         0x0000000000002304        0x8 build/z1/contiki-ng-z1.a(orchestra.o)
                0x0000000000002304                orchestra_parent_linkaddr
 COMMON         0x000000000000230c       0x38 build/z1/contiki-ng-z1.a(energest.o)
                0x000000000000230c                energest_total_time
                0x0000000000002334                energest_current_mode
                0x000000000000233a                energest_current_time
 COMMON         0x0000000000002344        0x1 build/z1/contiki-ng-z1.a(process.o)
                0x0000000000002344                process_maxevents
 COMMON         0x0000000000002345        0x1 build/z1/contiki-ng-z1.a(serial-line.o)
                0x0000000000002345                serial_line_event_message
 COMMON         0x0000000000002346       0x30 build/z1/contiki-ng-z1.a(packetbuf.o)
                0x0000000000002346                packetbuf_addrs
                0x0000000000002356                packetbuf_attrs
 COMMON         0x0000000000002376        0x8 build/z1/contiki-ng-z1.a(linkaddr.o)
                0x0000000000002376                linkaddr_node_addr
 COMMON         0x000000000000237e       0xaa build/z1/contiki-ng-z1.a(tsch.o)
                0x000000000000237e                tsch_timing_us
                0x0000000000002396                tsch_join_priority
                0x0000000000002398                tsch_timing
                0x00000000000023b0                sync_count
                0x00000000000023b4                send_back_address
                0x00000000000023dc                send_back_number_links
                0x00000000000023e6                tsch_hopping_sequence
                0x00000000000023ee                max_drift_seen
                0x00000000000023f2                tsch_current_asn
                0x00000000000023f8                cell_list_reserved
                0x0000000000002418                rx_count
                0x000000000000241c                tx_count
                0x0000000000002420                tsch_hopping_sequence_length
                0x0000000000002424                min_drift_seen
 COMMON         0x0000000000002428        0x6 build/z1/contiki-ng-z1.a(tsch-queue.o)
                0x0000000000002428                n_broadcast
                0x000000000000242a                n_eb
                0x000000000000242c                drops
 COMMON         0x000000000000242e      0x12e build/z1/contiki-ng-z1.a(tsch-slot-opera)
                0x000000000000242e                tsch_last_sync_time
                0x0000000000002432                dequeued_array
                0x000000000000243a                input_ringbuf
                0x000000000000243e                dequeued_ringbuf
                0x0000000000002442                tsch_current_channel
                0x0000000000002444                input_array
 COMMON         0x000000000000255c        0x2 build/z1/contiki-ng-z1.a(tsch-adaptive-t)
                0x000000000000255c                last_timesource_neighbor
 COMMON         0x000000000000255e      0x15c build/z1/contiki-ng-z1.a(uip-ds6.o)
                0x000000000000255e                uip_ds6_timer_ra
                0x0000000000002566                uip_ds6_if
                0x0000000000002652                uip_ds6_netif_addr_list_offset
                0x0000000000002653                uip_ds6_addr_size
                0x0000000000002654                uip_ds6_prefix_list
                0x00000000000026ae                uip_ds6_timer_periodic
 COMMON         0x00000000000026ba        0x1 build/z1/contiki-ng-z1.a(tcpip.o)
                0x00000000000026ba                tcpip_event
 *fill*         0x00000000000026bb        0x1 00
 COMMON         0x00000000000026bc       0xea build/z1/contiki-ng-z1.a(uip6.o)
                0x00000000000026bc                uip_len
                0x00000000000026be                uip_sappdata
                0x00000000000026c0                uip_lladdr
                0x00000000000026c8                uip_aligned_buf
                0x0000000000002768                uip_flags
                0x000000000000276a                uip_udp_conn
                0x000000000000276c                uip_appdata
                0x000000000000276e                uip_conn
                0x0000000000002770                uip_slen
                0x0000000000002772                uip_udp_conns
 COMMON         0x00000000000027a6        0x2 build/z1/contiki-ng-z1.a(rpl-neighbor.o)
                0x00000000000027a6                parent_change
 COMMON         0x00000000000027a8      0x10c build/z1/contiki-ng-z1.a(rpl-dag.o)
                0x00000000000027a8                curr_instance
 COMMON         0x00000000000028b4       0x10 build/z1/contiki-ng-z1.a(rpl.o)
                0x00000000000028b4                rpl_multicast_addr
 COMMON         0x00000000000028c4        0xc build/z1/contiki-ng-z1.a(cc2420.o)
                0x00000000000028c4                cc2420_last_rssi
                0x00000000000028c6                cc2420_sfd_start_time
                0x00000000000028c8                cc2420_last_correlation
                0x00000000000028ca                cc2420_authority_level_of_sender
                0x00000000000028cc                cc2420_sfd_counter
                0x00000000000028ce                cc2420_sfd_end_time
 COMMON         0x00000000000028d0        0x8 build/z1/contiki-ng-z1.a(node-id-z1.o)
                0x00000000000028d0                node_mac
 COMMON         0x00000000000028d8        0x1 build/z1/contiki-ng-z1.a(sensors.o)
                0x00000000000028d8                sensors_event
 COMMON         0x00000000000028d9        0x4 build/z1/contiki-ng-z1.a(z1-sensors.o)
                0x00000000000028d9                sensors_flags
 *fill*         0x00000000000028dd        0x1 00
 COMMON         0x00000000000028de        0x8 build/z1/contiki-ng-z1.a(adxl345.o)
                0x00000000000028de                accm_int2_cb
                0x00000000000028e2                accm_int1_cb
 COMMON         0x00000000000028e6       0x16 build/z1/contiki-ng-z1.a(link-stats.o)
                0x00000000000028e6                periodic_timer
 COMMON         0x00000000000028fc        0x2 build/z1/contiki-ng-z1.a(uip-icmp6.o)
                0x00000000000028fc                IcmpPackets
 COMMON         0x00000000000028fe        0xe build/z1/contiki-ng-z1.a(i2cmaster.o)
                0x00000000000028fe                transmit_data1
                0x00000000000028ff                rx_byte_ctr
                0x0000000000002900                tx_buf_ptr
                0x0000000000002902                tx_byte_ctr
                0x0000000000002904                i
                0x0000000000002906                receive_data
                0x0000000000002907                rx_buf
                0x0000000000002909                transmit_data2
                0x000000000000290a                rx_buf_ptr
 COMMON         0x000000000000290c        0x2 /opt/compiler/mspgcc-4.7.3/bin/../lib/gcc/msp430/4.7.3/../../../../msp430/lib/mcpu-430x/mmpy-16/msr20/mc20/libc.a(errno.o)
                0x000000000000290c                errno
                0x000000000000290e                . = ALIGN (0x2)
                0x000000000000290e                __bss_end = .
                0x00000000000015d8                __bss_size = SIZEOF (.bss)

.noinit         0x000000000000290e        0x2 load address 0x000000000000ffba
                0x000000000000290e                . = ALIGN (0x2)
                0x000000000000290e                __noinit_start = .
 *(.noinit .noinit.*)
 .noinit.crt0   0x000000000000290e        0x2 /opt/compiler/mspgcc-4.7.3/bin/../lib/gcc/msp430/4.7.3/mcpu-430x/mmpy-16/msr20/mc20/libcrt0.a(__watchdog_support.o)
                0x000000000000290e                __wdt_clear_value
                0x0000000000002910                . = ALIGN (0x2)
                0x0000000000002910                __noinit_end = .
                0x0000000000002910                . = ALIGN (0x2)
                0x0000000000002910                _end = .

.infomem        0x0000000000001000        0x0
                0x0000000000001000                . = ALIGN (0x2)
 *(.infomem .infomem.*)

.infomemnobits  0x0000000000001000        0x0
                0x0000000000001000                . = ALIGN (0x2)
 *(.infomemnobits .infomemnobits.*)

.infoa          0x00000000000010c0        0x0
                0x00000000000010c0                . = ALIGN (0x2)
 *(.infoa .infoa.*)

.infob          0x0000000000001080        0x0
                0x0000000000001080                . = ALIGN (0x2)
 *(.infob .infob.*)

.infoc          0x0000000000001040        0x0
                0x0000000000001040                . = ALIGN (0x2)
 *(.infoc .infoc.*)

.infod          0x0000000000001000        0x0
                0x0000000000001000                . = ALIGN (0x2)
 *(.infod .infod.*)
                0x000000000000ffff                PROVIDE (__vte_0, 0xffff)
                0x000000000000ffff                PROVIDE (__vte_1, 0xffff)
                0x000000000000ffff                PROVIDE (__vte_2, 0xffff)
                0x000000000000ffff                PROVIDE (__vte_3, 0xffff)
                0x000000000000ffff                PROVIDE (__vte_4, 0xffff)
                0x000000000000ffff                PROVIDE (__vte_5, 0xffff)
                0x000000000000ffff                PROVIDE (__vte_6, 0xffff)
                0x000000000000ffff                PROVIDE (__vte_7, 0xffff)
                0x000000000000ffff                PROVIDE (__vte_8, 0xffff)
                0x000000000000ffff                PROVIDE (__vte_9, 0xffff)
                0x000000000000ffff                PROVIDE (__vte_10, 0xffff)
                0x000000000000ffff                PROVIDE (__vte_11, 0xffff)
                0x000000000000ffff                PROVIDE (__vte_12, 0xffff)
                0x000000000000ffff                PROVIDE (__vte_13, 0xffff)
                0x000000000000ffff                PROVIDE (__vte_14, 0xffff)
                0x000000000000ffff                PROVIDE (__vte_15, 0xffff)
                0x000000000000ffff                PROVIDE (__vte_16, 0xffff)
                0x000000000000ffff                PROVIDE (__vte_17, 0xffff)
                0x000000000000ffff                PROVIDE (__vte_18, 0xffff)
                0x000000000000ffff                PROVIDE (__vte_19, 0xffff)
                0x000000000000ffff                PROVIDE (__vte_20, 0xffff)
                0x000000000000ffff                PROVIDE (__vte_21, 0xffff)
                0x000000000000ffff                PROVIDE (__vte_22, 0xffff)
                0x000000000000ffff                PROVIDE (__vte_23, 0xffff)
                0x000000000000ffff                PROVIDE (__vte_24, 0xffff)
                0x000000000000ffff                PROVIDE (__vte_25, 0xffff)
                0x000000000000ffff                PROVIDE (__vte_26, 0xffff)
                0x000000000000ffff                PROVIDE (__vte_27, 0xffff)
                0x000000000000ffff                PROVIDE (__vte_28, 0xffff)
                0x000000000000ffff                PROVIDE (__vte_29, 0xffff)
                0x000000000000ffff                PROVIDE (__vte_30, 0xffff)
                0x000000000000ffff                PROVIDE (__vte_31, 0xffff)

.vectors        0x000000000000ffc0       0x40
                0x000000000000ffc0                __vectors_start = .
 *(.vectors*)
 .vectors       0x000000000000ffc0       0x40 /opt/compiler/mspgcc-4.7.3/bin/../lib/gcc/msp430/4.7.3/mcpu-430x/mmpy-16/msr20/mc20/crt0ivtbl32.o
                0x000000000000ffc0                __ivtbl_32
                0x0000000000010000                _vectors_end = .

.fartext        0x0000000000010000        0x0
                0x0000000000010000                . = ALIGN (0x2)
 *(.fartext .fartext.*)

.far.text       0x0000000000010000     0x3c58
                0x0000000000010000                . = ALIGN (0x2)
 *(.far.text .far.text.*)
 .any.text.cmd_ip_neighbors
                0x0000000000010000      0x112 build/z1/contiki-ng-z1.a(shell-commands.)
 .any.text.cmd_log
                0x0000000000010112      0x132 build/z1/contiki-ng-z1.a(shell-commands.)
 .any.text.shell_commands_init
                0x0000000000010244       0x22 build/z1/contiki-ng-z1.a(shell-commands.)
                0x0000000000010244                shell_commands_init
 .any.text.shell_command_lookup
                0x0000000000010266       0x3a build/z1/contiki-ng-z1.a(shell-commands.)
                0x0000000000010266                shell_command_lookup
 .any.text.stimer_expired
                0x00000000000102a0       0x30 build/z1/contiki-ng-z1.a(stimer.o)
                0x00000000000102a0                stimer_expired
 .any.text.ringbufindex_init
                0x00000000000102d0       0x10 build/z1/contiki-ng-z1.a(ringbufindex.o)
                0x00000000000102d0                ringbufindex_init
 .any.text.ringbufindex_put
                0x00000000000102e0       0x28 build/z1/contiki-ng-z1.a(ringbufindex.o)
                0x00000000000102e0                ringbufindex_put
 .any.text.ringbufindex_peek_put
                0x0000000000010308       0x1c build/z1/contiki-ng-z1.a(ringbufindex.o)
                0x0000000000010308                ringbufindex_peek_put
 .any.text.ringbufindex_get
                0x0000000000010324       0x28 build/z1/contiki-ng-z1.a(ringbufindex.o)
                0x0000000000010324                ringbufindex_get
 .any.text.ringbufindex_peek_get
                0x000000000001034c       0x16 build/z1/contiki-ng-z1.a(ringbufindex.o)
                0x000000000001034c                ringbufindex_peek_get
 .any.text.ringbufindex_elements
                0x0000000000010362       0x10 build/z1/contiki-ng-z1.a(ringbufindex.o)
                0x0000000000010362                ringbufindex_elements
 .any.text.ringbufindex_empty
                0x0000000000010372       0x10 build/z1/contiki-ng-z1.a(ringbufindex.o)
                0x0000000000010372                ringbufindex_empty
 .any.text.memb_init
                0x0000000000010382       0x36 build/z1/contiki-ng-z1.a(memb.o)
                0x0000000000010382                memb_init
 .any.text.memb_alloc
                0x00000000000103b8       0x3e build/z1/contiki-ng-z1.a(memb.o)
                0x00000000000103b8                memb_alloc
 .any.text.memb_free
                0x00000000000103f6       0x32 build/z1/contiki-ng-z1.a(memb.o)
                0x00000000000103f6                memb_free
 .any.text.memb_inmemb
                0x0000000000010428       0x2a build/z1/contiki-ng-z1.a(memb.o)
                0x0000000000010428                memb_inmemb
 .any.text.item_from_index
                0x0000000000010452       0x2a build/z1/contiki-ng-z1.a(nbr-table.o)
 .any.text.index_from_key
                0x000000000001047c       0x26 build/z1/contiki-ng-z1.a(nbr-table.o)
 .any.text.index_from_item
                0x00000000000104a2       0x1e build/z1/contiki-ng-z1.a(nbr-table.o)
 .any.text.nbr_set_bit
                0x00000000000104c0       0x50 build/z1/contiki-ng-z1.a(nbr-table.o)
 .any.text.index_from_lladdr
                0x0000000000010510       0x3e build/z1/contiki-ng-z1.a(nbr-table.o)
 .any.text.nbr_get_bit.constprop.0
                0x000000000001054e       0x2c build/z1/contiki-ng-z1.a(nbr-table.o)
 .any.text.nbr_table_is_registered
                0x000000000001057a       0x22 build/z1/contiki-ng-z1.a(nbr-table.o)
                0x000000000001057a                nbr_table_is_registered
 .any.text.nbr_table_register
                0x000000000001059c       0x3c build/z1/contiki-ng-z1.a(nbr-table.o)
                0x000000000001059c                nbr_table_register
 .any.text.nbr_table_next
                0x00000000000105d8       0x4c build/z1/contiki-ng-z1.a(nbr-table.o)
                0x00000000000105d8                nbr_table_next
 .any.text.nbr_table_head
                0x0000000000010624       0x36 build/z1/contiki-ng-z1.a(nbr-table.o)
                0x0000000000010624                nbr_table_head
 .any.text.nbr_table_add_lladdr
                0x000000000001065a      0x14e build/z1/contiki-ng-z1.a(nbr-table.o)
                0x000000000001065a                nbr_table_add_lladdr
 .any.text.nbr_table_get_from_lladdr
                0x00000000000107a8       0x28 build/z1/contiki-ng-z1.a(nbr-table.o)
                0x00000000000107a8                nbr_table_get_from_lladdr
 .any.text.nbr_table_remove
                0x00000000000107d0       0x2a build/z1/contiki-ng-z1.a(nbr-table.o)
                0x00000000000107d0                nbr_table_remove
 .any.text.nbr_table_lock
                0x00000000000107fa       0x10 build/z1/contiki-ng-z1.a(nbr-table.o)
                0x00000000000107fa                nbr_table_lock
 .any.text.nbr_table_unlock
                0x000000000001080a       0x10 build/z1/contiki-ng-z1.a(nbr-table.o)
                0x000000000001080a                nbr_table_unlock
 .any.text.nbr_table_get_lladdr
                0x000000000001081a       0x20 build/z1/contiki-ng-z1.a(nbr-table.o)
                0x000000000001081a                nbr_table_get_lladdr
 .any.text.periodic
                0x000000000001083a       0x2c build/z1/contiki-ng-z1.a(link-stats.o)
 .any.text.link_stats_from_lladdr
                0x0000000000010866        0xc build/z1/contiki-ng-z1.a(link-stats.o)
                0x0000000000010866                link_stats_from_lladdr
 .any.text.link_stats_is_fresh
                0x0000000000010872       0x30 build/z1/contiki-ng-z1.a(link-stats.o)
                0x0000000000010872                link_stats_is_fresh
 .any.text.guess_etx_from_rssi
                0x00000000000108a2       0x42 build/z1/contiki-ng-z1.a(link-stats.o)
                0x00000000000108a2                guess_etx_from_rssi
 .any.text.link_stats_packet_sent
                0x00000000000108e4       0xcc build/z1/contiki-ng-z1.a(link-stats.o)
                0x00000000000108e4                link_stats_packet_sent
 .any.text.link_stats_input_callback
                0x00000000000109b0       0xaa build/z1/contiki-ng-z1.a(link-stats.o)
                0x00000000000109b0                link_stats_input_callback
 .any.text.link_stats_reset
                0x0000000000010a5a       0x2a build/z1/contiki-ng-z1.a(link-stats.o)
                0x0000000000010a5a                link_stats_reset
 .any.text.link_stats_init
                0x0000000000010a84       0x22 build/z1/contiki-ng-z1.a(link-stats.o)
                0x0000000000010a84                link_stats_init
 .any.text.mac_sequence_is_duplicate
                0x0000000000010aa6       0x6e build/z1/contiki-ng-z1.a(mac-sequence.o)
                0x0000000000010aa6                mac_sequence_is_duplicate
 .any.text.mac_sequence_register_seqno
                0x0000000000010b14       0x86 build/z1/contiki-ng-z1.a(mac-sequence.o)
                0x0000000000010b14                mac_sequence_register_seqno
 .any.text.mac_call_sent_callback
                0x0000000000010b9a       0x14 build/z1/contiki-ng-z1.a(mac.o)
                0x0000000000010b9a                mac_call_sent_callback
 .any.text.frame80215e_create_ie_header_ack_nack_time_correction
                0x0000000000010bae       0x38 build/z1/contiki-ng-z1.a(frame802154e-ie)
                0x0000000000010bae                frame80215e_create_ie_header_ack_nack_time_correction
 .any.text.frame80215e_create_ie_header_list_termination_1
                0x0000000000010be6       0x1c build/z1/contiki-ng-z1.a(frame802154e-ie)
                0x0000000000010be6                frame80215e_create_ie_header_list_termination_1
 .any.text.frame80215e_create_ie_mlme
                0x0000000000010c02       0x28 build/z1/contiki-ng-z1.a(frame802154e-ie)
                0x0000000000010c02                frame80215e_create_ie_mlme
 .any.text.frame80215e_create_ie_tsch_synchronization
                0x0000000000010c2a       0x56 build/z1/contiki-ng-z1.a(frame802154e-ie)
                0x0000000000010c2a                frame80215e_create_ie_tsch_synchronization
 .any.text.dtsf_frequency_offset
                0x0000000000010c80       0x24 build/z1/contiki-ng-z1.a(frame802154e-ie)
                0x0000000000010c80                dtsf_frequency_offset
 .any.text.dtsf_shared_timeslot
                0x0000000000010ca4       0x24 build/z1/contiki-ng-z1.a(frame802154e-ie)
                0x0000000000010ca4                dtsf_shared_timeslot
 .any.text.frame80215e_create_ie_tsch_slotframe_and_link
                0x0000000000010cc8       0xbe build/z1/contiki-ng-z1.a(frame802154e-ie)
                0x0000000000010cc8                frame80215e_create_ie_tsch_slotframe_and_link
 .any.text.frame80215e_create_ie_tsch_timeslot
                0x0000000000010d86       0x66 build/z1/contiki-ng-z1.a(frame802154e-ie)
                0x0000000000010d86                frame80215e_create_ie_tsch_timeslot
 .any.text.frame80215e_create_ie_tsch_channel_hopping_sequence
                0x0000000000010dec       0x9a build/z1/contiki-ng-z1.a(frame802154e-ie)
                0x0000000000010dec                frame80215e_create_ie_tsch_channel_hopping_sequence
 .any.text.frame802154e_parse_information_elements
                0x0000000000010e86      0x36c build/z1/contiki-ng-z1.a(frame802154e-ie)
                0x0000000000010e86                frame802154e_parse_information_elements
 .any.text.parse
                0x00000000000111f2       0x9c build/z1/contiki-ng-z1.a(framer-802154.o)
 .any.text.framer_802154_setup_params
                0x000000000001128e       0xb4 build/z1/contiki-ng-z1.a(framer-802154.o)
                0x000000000001128e                framer_802154_setup_params
 .any.text.create_frame
                0x0000000000011342       0xda build/z1/contiki-ng-z1.a(framer-802154.o)
 .any.text.create
                0x000000000001141c        0x8 build/z1/contiki-ng-z1.a(framer-802154.o)
 .any.text.hdr_length
                0x0000000000011424        0x8 build/z1/contiki-ng-z1.a(framer-802154.o)
 .any.text.frame802154_get_pan_id
                0x000000000001142c        0x6 build/z1/contiki-ng-z1.a(frame802154.o)
                0x000000000001142c                frame802154_get_pan_id
 .any.text.frame802154_set_pan_id
                0x0000000000011432        0x6 build/z1/contiki-ng-z1.a(frame802154.o)
                0x0000000000011432                frame802154_set_pan_id
 .any.text.frame802154_has_panid
                0x0000000000011438       0xe0 build/z1/contiki-ng-z1.a(frame802154.o)
                0x0000000000011438                frame802154_has_panid
 .any.text.field_len
                0x0000000000011518       0xa8 build/z1/contiki-ng-z1.a(frame802154.o)
 .any.text.frame802154_check_dest_panid
                0x00000000000115c0       0x3a build/z1/contiki-ng-z1.a(frame802154.o)
                0x00000000000115c0                frame802154_check_dest_panid
 .any.text.frame802154_is_broadcast_addr
                0x00000000000115fa       0x28 build/z1/contiki-ng-z1.a(frame802154.o)
                0x00000000000115fa                frame802154_is_broadcast_addr
 .any.text.frame802154_extract_linkaddr
                0x0000000000011622       0x8c build/z1/contiki-ng-z1.a(frame802154.o)
                0x0000000000011622                frame802154_extract_linkaddr
 .any.text.frame802154_hdrlen
                0x00000000000116ae       0x32 build/z1/contiki-ng-z1.a(frame802154.o)
                0x00000000000116ae                frame802154_hdrlen
 .any.text.frame802154_create_fcf
                0x00000000000116e0       0x6e build/z1/contiki-ng-z1.a(frame802154.o)
                0x00000000000116e0                frame802154_create_fcf
 .any.text.frame802154_create
                0x000000000001174e       0xd4 build/z1/contiki-ng-z1.a(frame802154.o)
                0x000000000001174e                frame802154_create
 .any.text.frame802154_parse_fcf
                0x0000000000011822       0x8c build/z1/contiki-ng-z1.a(frame802154.o)
                0x0000000000011822                frame802154_parse_fcf
 .any.text.frame802154_parse
                0x00000000000118ae      0x15c build/z1/contiki-ng-z1.a(frame802154.o)
                0x00000000000118ae                frame802154_parse
 .any.text.uipbuf_add_ext_hdr
                0x0000000000011a0a       0x1c build/z1/contiki-ng-z1.a(uipbuf.o)
                0x0000000000011a0a                uipbuf_add_ext_hdr
 .any.text.uipbuf_set_len
                0x0000000000011a26       0x12 build/z1/contiki-ng-z1.a(uipbuf.o)
                0x0000000000011a26                uipbuf_set_len
 .any.text.uipbuf_set_len_field
                0x0000000000011a38        0xe build/z1/contiki-ng-z1.a(uipbuf.o)
                0x0000000000011a38                uipbuf_set_len_field
 .any.text.uipbuf_get_len_field
                0x0000000000011a46        0xe build/z1/contiki-ng-z1.a(uipbuf.o)
                0x0000000000011a46                uipbuf_get_len_field
 .any.text.uipbuf_get_next_header
                0x0000000000011a54       0x5a build/z1/contiki-ng-z1.a(uipbuf.o)
                0x0000000000011a54                uipbuf_get_next_header
 .any.text.uipbuf_get_last_header
                0x0000000000011aae       0x36 build/z1/contiki-ng-z1.a(uipbuf.o)
                0x0000000000011aae                uipbuf_get_last_header
 .any.text.uipbuf_search_header
                0x0000000000011ae4       0x46 build/z1/contiki-ng-z1.a(uipbuf.o)
                0x0000000000011ae4                uipbuf_search_header
 .any.text.uipbuf_get_attr
                0x0000000000011b2a       0x14 build/z1/contiki-ng-z1.a(uipbuf.o)
                0x0000000000011b2a                uipbuf_get_attr
 .any.text.uipbuf_clear_attr
                0x0000000000011b3e       0x12 build/z1/contiki-ng-z1.a(uipbuf.o)
                0x0000000000011b3e                uipbuf_clear_attr
 .any.text.uipbuf_clear
                0x0000000000011b50       0x12 build/z1/contiki-ng-z1.a(uipbuf.o)
                0x0000000000011b50                uipbuf_clear
 .any.text.uipbuf_init
                0x0000000000011b62       0x1a build/z1/contiki-ng-z1.a(uipbuf.o)
                0x0000000000011b62                uipbuf_init
 .any.text.echo_reply_input
                0x0000000000011b7c       0x60 build/z1/contiki-ng-z1.a(uip-icmp6.o)
 .any.text.echo_request_input
                0x0000000000011bdc       0x86 build/z1/contiki-ng-z1.a(uip-icmp6.o)
 .any.text.uip_icmp6_input
                0x0000000000011c62       0x44 build/z1/contiki-ng-z1.a(uip-icmp6.o)
                0x0000000000011c62                uip_icmp6_input
 .any.text.uip_icmp6_register_input_handler
                0x0000000000011ca6        0xc build/z1/contiki-ng-z1.a(uip-icmp6.o)
                0x0000000000011ca6                uip_icmp6_register_input_handler
 .any.text.uip_icmp6_error_output
                0x0000000000011cb2      0x136 build/z1/contiki-ng-z1.a(uip-icmp6.o)
                0x0000000000011cb2                uip_icmp6_error_output
 .any.text.uip_icmp6_send
                0x0000000000011de8       0x86 build/z1/contiki-ng-z1.a(uip-icmp6.o)
                0x0000000000011de8                uip_icmp6_send
 .any.text.uip_icmp6_echo_reply_callback_add
                0x0000000000011e6e       0x18 build/z1/contiki-ng-z1.a(uip-icmp6.o)
                0x0000000000011e6e                uip_icmp6_echo_reply_callback_add
 .any.text.uip_icmp6_init
                0x0000000000011e86       0x16 build/z1/contiki-ng-z1.a(uip-icmp6.o)
                0x0000000000011e86                uip_icmp6_init
 .any.text.node_matches_address.part.0
                0x0000000000011e9c       0x2e build/z1/contiki-ng-z1.a(uip-sr.o)
 .any.text.uip_sr_num_nodes
                0x0000000000011eca        0x6 build/z1/contiki-ng-z1.a(uip-sr.o)
                0x0000000000011eca                uip_sr_num_nodes
 .any.text.uip_sr_get_node
                0x0000000000011ed0       0x3c build/z1/contiki-ng-z1.a(uip-sr.o)
                0x0000000000011ed0                uip_sr_get_node
 .any.text.uip_sr_is_addr_reachable
                0x0000000000011f0c       0x4a build/z1/contiki-ng-z1.a(uip-sr.o)
                0x0000000000011f0c                uip_sr_is_addr_reachable
 .any.text.uip_sr_expire_parent
                0x0000000000011f56       0x3a build/z1/contiki-ng-z1.a(uip-sr.o)
                0x0000000000011f56                uip_sr_expire_parent
 .any.text.uip_sr_update_node
                0x0000000000011f90       0xac build/z1/contiki-ng-z1.a(uip-sr.o)
                0x0000000000011f90                uip_sr_update_node
 .any.text.uip_sr_init
                0x000000000001203c       0x16 build/z1/contiki-ng-z1.a(uip-sr.o)
                0x000000000001203c                uip_sr_init
 .any.text.uip_sr_node_head
                0x0000000000012052        0xa build/z1/contiki-ng-z1.a(uip-sr.o)
                0x0000000000012052                uip_sr_node_head
 .any.text.uip_sr_node_next
                0x000000000001205c        0x6 build/z1/contiki-ng-z1.a(uip-sr.o)
                0x000000000001205c                uip_sr_node_next
 .any.text.uip_sr_periodic
                0x0000000000012062       0x8a build/z1/contiki-ng-z1.a(uip-sr.o)
                0x0000000000012062                uip_sr_periodic
 .any.text.uip_sr_free_all
                0x00000000000120ec       0x38 build/z1/contiki-ng-z1.a(uip-sr.o)
                0x00000000000120ec                uip_sr_free_all
 .any.text.uip_sr_link_snprint
                0x0000000000012124       0xc8 build/z1/contiki-ng-z1.a(uip-sr.o)
                0x0000000000012124                uip_sr_link_snprint
 .any.text.update_state
                0x00000000000121ec       0x6c build/z1/contiki-ng-z1.a(rpl-nbr-policy.)
 .any.text.rpl_nbr_policy_find_removable
                0x0000000000012258       0x4e build/z1/contiki-ng-z1.a(rpl-nbr-policy.)
                0x0000000000012258                rpl_nbr_policy_find_removable
 .any.text.update_hbh_header
                0x00000000000122a6       0x4a build/z1/contiki-ng-z1.a(rpl-ext-header.)
 .any.text.rpl_ext_header_srh_get_next_hop
                0x00000000000122f0       0x7c build/z1/contiki-ng-z1.a(rpl-ext-header.)
                0x00000000000122f0                rpl_ext_header_srh_get_next_hop
 .any.text.rpl_ext_header_srh_update
                0x000000000001236c       0xdc build/z1/contiki-ng-z1.a(rpl-ext-header.)
                0x000000000001236c                rpl_ext_header_srh_update
 .any.text.rpl_ext_header_hbh_update
                0x0000000000012448       0x8e build/z1/contiki-ng-z1.a(rpl-ext-header.)
                0x0000000000012448                rpl_ext_header_hbh_update
 .any.text.rpl_ext_header_remove
                0x00000000000124d6       0xc0 build/z1/contiki-ng-z1.a(rpl-ext-header.)
                0x00000000000124d6                rpl_ext_header_remove
 .any.text.rpl_ext_header_update
                0x0000000000012596      0x266 build/z1/contiki-ng-z1.a(rpl-ext-header.)
                0x0000000000012596                rpl_ext_header_update
 .any.text.i2c_receiveinit
                0x00000000000127fc       0x36 build/z1/contiki-ng-z1.a(i2cmaster.o)
                0x00000000000127fc                i2c_receiveinit
 .any.text.i2c_transmitinit
                0x0000000000012832       0x30 build/z1/contiki-ng-z1.a(i2cmaster.o)
                0x0000000000012832                i2c_transmitinit
 .any.text.i2c_receive_n
                0x0000000000012862       0x3e build/z1/contiki-ng-z1.a(i2cmaster.o)
                0x0000000000012862                i2c_receive_n
 .any.text.i2c_busy
                0x00000000000128a0        0xa build/z1/contiki-ng-z1.a(i2cmaster.o)
                0x00000000000128a0                i2c_busy
 .any.text.i2c_enable
                0x00000000000128aa       0x22 build/z1/contiki-ng-z1.a(i2cmaster.o)
                0x00000000000128aa                i2c_enable
 .any.text.i2c_transmit_n
                0x00000000000128cc       0x14 build/z1/contiki-ng-z1.a(i2cmaster.o)
                0x00000000000128cc                i2c_transmit_n
 .any.text.status
                0x00000000000128e0       0x18 build/z1/contiki-ng-z1.a(button-sensor.o)
 .any.text.value
                0x00000000000128f8       0x20 build/z1/contiki-ng-z1.a(button-sensor.o)
 .any.text.configure
                0x0000000000012918       0x4e build/z1/contiki-ng-z1.a(button-sensor.o)
 .any.text      0x0000000000012966       0x4e /opt/compiler/mspgcc-4.7.3/bin/../lib/gcc/msp430/4.7.3/mcpu-430x/mmpy-16/msr20/mc20/libgcc.a(_eq_sf.o)
                0x0000000000012966                __eqsf2
 .any.text      0x00000000000129b4       0x4e /opt/compiler/mspgcc-4.7.3/bin/../lib/gcc/msp430/4.7.3/mcpu-430x/mmpy-16/msr20/mc20/libgcc.a(_gt_sf.o)
                0x00000000000129b4                __gtsf2
 .any.text      0x0000000000012a02       0xa4 /opt/compiler/mspgcc-4.7.3/bin/../lib/gcc/msp430/4.7.3/mcpu-430x/mmpy-16/msr20/mc20/libgcc.a(_si_to_sf.o)
                0x0000000000012a02                __floatsisf
 .any.text      0x0000000000012aa6       0x6a /opt/compiler/mspgcc-4.7.3/bin/../lib/gcc/msp430/4.7.3/mcpu-430x/mmpy-16/msr20/mc20/libgcc.a(_clzsi2.o)
                0x0000000000012aa6                __clzsi2
 .any.text      0x0000000000012b10      0x1c4 /opt/compiler/mspgcc-4.7.3/bin/../lib/gcc/msp430/4.7.3/mcpu-430x/mmpy-16/msr20/mc20/libgcc.a(_pack_sf.o)
                0x0000000000012b10                __pack_f
 .any.text      0x0000000000012cd4      0x10c /opt/compiler/mspgcc-4.7.3/bin/../lib/gcc/msp430/4.7.3/mcpu-430x/mmpy-16/msr20/mc20/libgcc.a(_unpack_sf.o)
                0x0000000000012cd4                __unpack_f
 .any.text      0x0000000000012de0       0xa4 /opt/compiler/mspgcc-4.7.3/bin/../lib/gcc/msp430/4.7.3/mcpu-430x/mmpy-16/msr20/mc20/libgcc.a(_fpcmp_parts_sf.o)
                0x0000000000012de0                __fpcmp_parts_f
 .any.text.strtol
                0x0000000000012e84      0x182 /opt/compiler/mspgcc-4.7.3/bin/../lib/gcc/msp430/4.7.3/../../../../msp430/lib/mcpu-430x/mmpy-16/msr20/mc20/libc.a(strtol.o)
                0x0000000000012e84                strtol
 .any.text.printf
                0x0000000000013006       0x10 /opt/compiler/mspgcc-4.7.3/bin/../lib/gcc/msp430/4.7.3/../../../../msp430/lib/mcpu-430x/mmpy-16/msr20/mc20/libc.a(printf.o)
                0x0000000000013006                printf
 .any.text.append
                0x0000000000013016       0x22 /opt/compiler/mspgcc-4.7.3/bin/../lib/gcc/msp430/4.7.3/../../../../msp430/lib/mcpu-430x/mmpy-16/msr20/mc20/libc.a(sprintf.o)
 .any.text.call_vuprintf
                0x0000000000013038       0x36 /opt/compiler/mspgcc-4.7.3/bin/../lib/gcc/msp430/4.7.3/../../../../msp430/lib/mcpu-430x/mmpy-16/msr20/mc20/libc.a(sprintf.o)
 .any.text.snprintf
                0x000000000001306e       0x1c /opt/compiler/mspgcc-4.7.3/bin/../lib/gcc/msp430/4.7.3/../../../../msp430/lib/mcpu-430x/mmpy-16/msr20/mc20/libc.a(sprintf.o)
                0x000000000001306e                snprintf
 .any.text.print_field
                0x000000000001308a      0x176 /opt/compiler/mspgcc-4.7.3/bin/../lib/gcc/msp430/4.7.3/../../../../msp430/lib/mcpu-430x/mmpy-16/msr20/mc20/libc.a(vuprintf.o)
 .any.text.vuprintf
                0x0000000000013200      0x742 /opt/compiler/mspgcc-4.7.3/bin/../lib/gcc/msp430/4.7.3/../../../../msp430/lib/mcpu-430x/mmpy-16/msr20/mc20/libc.a(vuprintf.o)
                0x0000000000013200                vuprintf
 .any.text.puts
                0x0000000000013942       0x2c /opt/compiler/mspgcc-4.7.3/bin/../lib/gcc/msp430/4.7.3/../../../../msp430/lib/mcpu-430x/mmpy-16/msr20/mc20/libc.a(puts.o)
                0x0000000000013942                puts
 .any.text.rand
                0x000000000001396e       0x26 /opt/compiler/mspgcc-4.7.3/bin/../lib/gcc/msp430/4.7.3/../../../../msp430/lib/mcpu-430x/mmpy-16/msr20/mc20/libc.a(rand.o)
                0x000000000001396e                rand
 .any.text.srand
                0x0000000000013994        0xa /opt/compiler/mspgcc-4.7.3/bin/../lib/gcc/msp430/4.7.3/../../../../msp430/lib/mcpu-430x/mmpy-16/msr20/mc20/libc.a(rand.o)
                0x0000000000013994                srand
 .any.text.strchr
                0x000000000001399e       0x16 /opt/compiler/mspgcc-4.7.3/bin/../lib/gcc/msp430/4.7.3/../../../../msp430/lib/mcpu-430x/mmpy-16/msr20/mc20/libc.a(strchr.o)
                0x000000000001399e                strchr
 .any.text.strcmp
                0x00000000000139b4       0x1e /opt/compiler/mspgcc-4.7.3/bin/../lib/gcc/msp430/4.7.3/../../../../msp430/lib/mcpu-430x/mmpy-16/msr20/mc20/libc.a(strcmp.o)
                0x00000000000139b4                strcmp
 .any.text.memcmp
                0x00000000000139d2       0x2c /opt/compiler/mspgcc-4.7.3/bin/../lib/gcc/msp430/4.7.3/../../../../msp430/lib/mcpu-430x/mmpy-16/msr20/mc20/libc.a(memcmp.o)
                0x00000000000139d2                memcmp
 .any.text.strcpy
                0x00000000000139fe       0x14 /opt/compiler/mspgcc-4.7.3/bin/../lib/gcc/msp430/4.7.3/../../../../msp430/lib/mcpu-430x/mmpy-16/msr20/mc20/libc.a(strcpy.o)
                0x00000000000139fe                strcpy
 .any.text.memcpy
                0x0000000000013a12       0xe8 /opt/compiler/mspgcc-4.7.3/bin/../lib/gcc/msp430/4.7.3/../../../../msp430/lib/mcpu-430x/mmpy-16/msr20/mc20/libc.a(memcpy.o)
                0x0000000000013a12                memcpy
 .any.text.memmove
                0x0000000000013afa       0xe8 /opt/compiler/mspgcc-4.7.3/bin/../lib/gcc/msp430/4.7.3/../../../../msp430/lib/mcpu-430x/mmpy-16/msr20/mc20/libc.a(memmove.o)
                0x0000000000013afa                memmove
 .any.text.memset
                0x0000000000013be2       0x5c /opt/compiler/mspgcc-4.7.3/bin/../lib/gcc/msp430/4.7.3/../../../../msp430/lib/mcpu-430x/mmpy-16/msr20/mc20/libc.a(memset.o)
                0x0000000000013be2                memset
 .any.text.strcat
                0x0000000000013c3e       0x1a /opt/compiler/mspgcc-4.7.3/bin/../lib/gcc/msp430/4.7.3/../../../../msp430/lib/mcpu-430x/mmpy-16/msr20/mc20/libc.a(strcat.o)
                0x0000000000013c3e                strcat

.far.rodata     0x0000000000013c58        0x0
                0x0000000000013c58                . = ALIGN (0x2)
 *(.far.rodata .far.rodata.*)
                0x0000000000013c58                . = ALIGN (0x2)
                0x0000000000013c58                _efartext = .

.far.data       0x0000000000000000        0x0 load address 0x0000000000013c58
                0x0000000000000000                . = ALIGN (0x2)
                0x0000000000000000                __far_data_start = .
 *(.far.data .far.data.*)
                0x0000000000000000                . = ALIGN (0x2)
                0x0000000000000000                _efardata = .
                0x0000000000013c58                __far_data_load_start = LOADADDR (.far.data)
                0x0000000000000000                __far_data_size = SIZEOF (.far.data)

.far.bss        0x0000000000000000        0x0 load address 0x0000000000013c58
                0x0000000000000000                . = ALIGN (0x2)
                0x0000000000000000                __far_bss_start = .
 *(.far.bss .far.bss.*)
                0x0000000000000000                . = ALIGN (0x2)
                0x0000000000000000                __far_bss_end = .
                0x0000000000000000                __far_bss_size = SIZEOF (.far.bss)
                0x0000000000000000                . = ALIGN (0x2)
                0x0000000000000000                _far_end = .

.profiler
 *(.profiler)

.stab           0x0000000000000000    0x3c24c
 *(.stab)
 .stab          0x0000000000000000     0x14d0 udp-server.o
 .stab          0x00000000000014d0      0xc84 build/z1/obj/contiki-main.o
                                       0x1b48 (size before relaxing)
 .stab          0x0000000000002154      0x228 build/z1/contiki-ng-z1.a(uart0-putchar.o)
                                        0x714 (size before relaxing)
 .stab          0x000000000000237c     0x1104 build/z1/contiki-ng-z1.a(platform.o)
                                       0x1578 (size before relaxing)
 .stab          0x0000000000003480      0x558 build/z1/contiki-ng-z1.a(msp430.o)
                                        0x894 (size before relaxing)
 .stab          0x00000000000039d8      0x900 build/z1/contiki-ng-z1.a(clock.o)
                                        0xc60 (size before relaxing)
 .stab          0x00000000000042d8      0x3b4 build/z1/contiki-ng-z1.a(watchdog.o)
                                        0x6f0 (size before relaxing)
 .stab          0x000000000000468c      0x378 build/z1/contiki-ng-z1.a(rtimer-arch.o)
                                        0x6b4 (size before relaxing)
 .stab          0x0000000000004a04      0x3fc build/z1/contiki-ng-z1.a(serial-shell.o)
                                        0xb94 (size before relaxing)
 .stab          0x0000000000004e00      0xc9c build/z1/contiki-ng-z1.a(orchestra-rule-)
                                       0x1644 (size before relaxing)
 .stab          0x0000000000005a9c      0x4ec build/z1/contiki-ng-z1.a(orchestra-rule-)
                                       0x13f8 (size before relaxing)
 .stab          0x0000000000005f88      0x8f4 build/z1/contiki-ng-z1.a(orchestra.o)
                                       0x1800 (size before relaxing)
 .stab          0x000000000000687c      0x6f0 build/z1/contiki-ng-z1.a(orchestra-rule-)
                                       0x15fc (size before relaxing)
 .stab          0x0000000000006f6c      0x2ac build/z1/contiki-ng-z1.a(autostart.o)
                                        0x5e8 (size before relaxing)
 .stab          0x0000000000007218      0x804 build/z1/contiki-ng-z1.a(ctimer.o)
                                        0xb58 (size before relaxing)
 .stab          0x0000000000007a1c      0x348 build/z1/contiki-ng-z1.a(energest.o)
                                        0x6a8 (size before relaxing)
 .stab          0x0000000000007d64      0xa98 build/z1/contiki-ng-z1.a(etimer.o)
                                        0xdd4 (size before relaxing)
 .stab          0x00000000000087fc      0x858 build/z1/contiki-ng-z1.a(log.o)
                                       0x1008 (size before relaxing)
 .stab          0x0000000000009054      0x348 build/z1/contiki-ng-z1.a(rtimer.o)
                                        0x684 (size before relaxing)
 .stab          0x000000000000939c      0x264 build/z1/contiki-ng-z1.a(node-id.o)
                                        0x9d8 (size before relaxing)
 .stab          0x0000000000009600      0xbb8 build/z1/contiki-ng-z1.a(process.o)
                                       0x10e0 (size before relaxing)
 .stab          0x000000000000a1b8      0x3b4 build/z1/contiki-ng-z1.a(timer.o)
                                        0x6f0 (size before relaxing)
 .stab          0x000000000000a56c      0x5f4 build/z1/contiki-ng-z1.a(stack-check.o)
                                        0xd98 (size before relaxing)
 .stab          0x000000000000ab60      0x954 build/z1/contiki-ng-z1.a(list.o)
                                        0xe58 (size before relaxing)
 .stab          0x000000000000b4b4      0x288 build/z1/contiki-ng-z1.a(random.o)
                                        0x78c (size before relaxing)
 .stab          0x000000000000b73c      0x510 build/z1/contiki-ng-z1.a(serial-line.o)
                                        0x9fc (size before relaxing)
 .stab          0x000000000000bc4c      0x924 build/z1/contiki-ng-z1.a(queuebuf.o)
                                       0x165c (size before relaxing)
 .stab          0x000000000000c570      0xc00 build/z1/contiki-ng-z1.a(packetbuf.o)
                                       0x1944 (size before relaxing)
 .stab          0x000000000000d170      0x42c build/z1/contiki-ng-z1.a(netstack.o)
                                        0x8c4 (size before relaxing)
 .stab          0x000000000000d59c      0x30c build/z1/contiki-ng-z1.a(linkaddr.o)
                                        0x810 (size before relaxing)
 .stab          0x000000000000d8a8     0x282c build/z1/contiki-ng-z1.a(tsch.o)
                                       0x3714 (size before relaxing)
 .stab          0x00000000000100d4     0x1c08 build/z1/contiki-ng-z1.a(tsch-queue.o)
                                       0x2718 (size before relaxing)
 .stab          0x0000000000011cdc     0x25c8 build/z1/contiki-ng-z1.a(tsch-schedule.o)
                                       0x345c (size before relaxing)
 .stab          0x00000000000142a4     0x1ab8 build/z1/contiki-ng-z1.a(tsch-slot-opera)
                                       0x29a0 (size before relaxing)
 .stab          0x0000000000015d5c      0xf54 build/z1/contiki-ng-z1.a(tsch-packet.o)
                                       0x1d58 (size before relaxing)
 .stab          0x0000000000016cb0      0x9e4 build/z1/contiki-ng-z1.a(tsch-security.o)
                                       0x1908 (size before relaxing)
 .stab          0x0000000000017694      0x66c build/z1/contiki-ng-z1.a(tsch-rpl.o)
                                       0x1590 (size before relaxing)
 .stab          0x0000000000017d00      0x828 build/z1/contiki-ng-z1.a(tsch-adaptive-t)
                                       0x171c (size before relaxing)
 .stab          0x0000000000018528     0x15d8 build/z1/contiki-ng-z1.a(uip-ds6.o)
                                       0x2160 (size before relaxing)
 .stab          0x0000000000019b00      0x858 build/z1/contiki-ng-z1.a(uiplib.o)
                                       0x1008 (size before relaxing)
 .stab          0x000000000001a358      0xaa4 build/z1/contiki-ng-z1.a(uip-ds6-route.o)
                                       0x1614 (size before relaxing)
 .stab          0x000000000001adfc      0xbdc build/z1/contiki-ng-z1.a(tcpip.o)
                                       0x18cc (size before relaxing)
 .stab          0x000000000001b9d8     0x1524 build/z1/contiki-ng-z1.a(uip6.o)
                                       0x2190 (size before relaxing)
 .stab          0x000000000001cefc      0xb10 build/z1/contiki-ng-z1.a(uip-ds6-nbr.o)
                                       0x16ec (size before relaxing)
 .stab          0x000000000001da0c      0x720 build/z1/contiki-ng-z1.a(uip-nd6.o)
                                       0x12e4 (size before relaxing)
 .stab          0x000000000001e12c      0x750 build/z1/contiki-ng-z1.a(simple-udp.o)
                                       0x13d4 (size before relaxing)
 .stab          0x000000000001e87c     0x20d0 build/z1/contiki-ng-z1.a(sicslowpan.o)
                                       0x2d48 (size before relaxing)
 .stab          0x000000000002094c     0x1494 build/z1/contiki-ng-z1.a(rpl-neighbor.o)
                                       0x225c (size before relaxing)
 .stab          0x0000000000021de0     0x15f0 build/z1/contiki-ng-z1.a(rpl-dag.o)
                                       0x22d4 (size before relaxing)
 .stab          0x00000000000233d0     0x1248 build/z1/contiki-ng-z1.a(rpl-timers.o)
                                       0x1f20 (size before relaxing)
 .stab          0x0000000000024618      0xc54 build/z1/contiki-ng-z1.a(rpl.o)
                                       0x1920 (size before relaxing)
 .stab          0x000000000002526c      0x888 build/z1/contiki-ng-z1.a(rpl-mrhof.o)
                                       0x1548 (size before relaxing)
 .stab          0x0000000000025af4     0x1524 build/z1/contiki-ng-z1.a(rpl-icmp6.o)
                                       0x22b0 (size before relaxing)
 .stab          0x0000000000027018      0x720 build/z1/contiki-ng-z1.a(rpl-dag-root.o)
                                       0x1524 (size before relaxing)
 .stab          0x0000000000027738      0x228 build/z1/contiki-ng-z1.a(contiki-z1-plat)
                                        0x564 (size before relaxing)
 .stab          0x0000000000027960      0x468 build/z1/contiki-ng-z1.a(leds.o)
                                        0x840 (size before relaxing)
 .stab          0x0000000000027dc8      0x954 build/z1/contiki-ng-z1.a(xmem.o)
                                        0xe7c (size before relaxing)
 .stab          0x000000000002871c      0x264 build/z1/contiki-ng-z1.a(spi-legacy.o)
                                        0x5a0 (size before relaxing)
 .stab          0x0000000000028980     0x2988 build/z1/contiki-ng-z1.a(cc2420.o)
                                       0x3198 (size before relaxing)
 .stab          0x000000000002b308      0x39c build/z1/contiki-ng-z1.a(cc2420-arch.o)
                                       0x108c (size before relaxing)
 .stab          0x000000000002b6a4      0x2f4 build/z1/contiki-ng-z1.a(cc2420-arch-sfd)
                                        0x738 (size before relaxing)
 .stab          0x000000000002b998      0x354 build/z1/contiki-ng-z1.a(node-id-z1.o)
                                        0x840 (size before relaxing)
 .stab          0x000000000002bcec      0x66c build/z1/contiki-ng-z1.a(sensors.o)
                                        0xb88 (size before relaxing)
 .stab          0x000000000002c358      0x4a4 build/z1/contiki-ng-z1.a(uart0.o)
                                        0x9d8 (size before relaxing)
 .stab          0x000000000002c7fc      0x390 build/z1/contiki-ng-z1.a(z1-sensors.o)
                                        0x75c (size before relaxing)
 .stab          0x000000000002cb8c      0xd20 build/z1/contiki-ng-z1.a(adxl345.o)
                                       0x1338 (size before relaxing)
 .stab          0x000000000002d8ac      0x7f8 build/z1/contiki-ng-z1.a(tmp102.o)
                                        0xd38 (size before relaxing)
 .stab          0x000000000002e0a4      0x384 build/z1/contiki-ng-z1.a(leds-arch.o)
                                        0x75c (size before relaxing)
 .stab          0x000000000002e428      0x300 build/z1/contiki-ng-z1.a(int-master.o)
                                        0x654 (size before relaxing)
 .stab          0x000000000002e728      0x984 build/z1/contiki-ng-z1.a(shell.o)
                                       0x17a0 (size before relaxing)
 .stab          0x000000000002f0ac     0x2ab4 build/z1/contiki-ng-z1.a(shell-commands.)
                                       0x3a68 (size before relaxing)
 .stab          0x0000000000031b60      0x42c build/z1/contiki-ng-z1.a(stimer.o)
                                        0x780 (size before relaxing)
 .stab          0x0000000000031f8c      0x5e8 build/z1/contiki-ng-z1.a(ringbufindex.o)
                                        0xb04 (size before relaxing)
 .stab          0x0000000000032574      0x5ac build/z1/contiki-ng-z1.a(memb.o)
                                        0xac8 (size before relaxing)
 .stab          0x0000000000032b20      0xf84 build/z1/contiki-ng-z1.a(nbr-table.o)
                                       0x1608 (size before relaxing)
 .stab          0x0000000000033aa4      0x8a0 build/z1/contiki-ng-z1.a(link-stats.o)
                                       0x126c (size before relaxing)
 .stab          0x0000000000034344      0x540 build/z1/contiki-ng-z1.a(mac-sequence.o)
                                       0x1284 (size before relaxing)
 .stab          0x0000000000034884      0x4bc build/z1/contiki-ng-z1.a(mac.o)
                                        0xaec (size before relaxing)
 .stab          0x0000000000034d40     0x156c build/z1/contiki-ng-z1.a(frame802154e-ie)
                                       0x2478 (size before relaxing)
 .stab          0x00000000000362ac      0x7b0 build/z1/contiki-ng-z1.a(framer-802154.o)
                                       0x1014 (size before relaxing)
 .stab          0x0000000000036a5c     0x117c build/z1/contiki-ng-z1.a(frame802154.o)
                                       0x1944 (size before relaxing)
 .stab          0x0000000000037bd8      0x3a8 build/z1/contiki-ng-z1.a(cc2420-tsch-15m)
                                       0x129c (size before relaxing)
 .stab          0x0000000000037f80      0xad4 build/z1/contiki-ng-z1.a(uipbuf.o)
                                       0x1230 (size before relaxing)
 .stab          0x0000000000038a54      0xaec build/z1/contiki-ng-z1.a(uip-icmp6.o)
                                       0x16ec (size before relaxing)
 .stab          0x0000000000039540      0xcd8 build/z1/contiki-ng-z1.a(uip-sr.o)
                                       0x17dc (size before relaxing)
 .stab          0x000000000003a218      0x570 build/z1/contiki-ng-z1.a(rpl-nbr-policy.)
                                       0x1200 (size before relaxing)
 .stab          0x000000000003a788      0xe64 build/z1/contiki-ng-z1.a(rpl-ext-header.)
                                       0x1bcc (size before relaxing)
 .stab          0x000000000003b5ec      0x834 build/z1/contiki-ng-z1.a(i2cmaster.o)
                                        0xb70 (size before relaxing)
 .stab          0x000000000003be20      0x42c build/z1/contiki-ng-z1.a(button-sensor.o)
                                        0x780 (size before relaxing)

.stabstr        0x0000000000000000    0x2536e
 *(.stabstr)
 .stabstr       0x0000000000000000    0x2536e udp-server.o

.stab.excl
 *(.stab.excl)

.stab.exclstr
 *(.stab.exclstr)

.stab.index
 *(.stab.index)

.stab.indexstr
 *(.stab.indexstr)

.comment        0x0000000000000000       0x30
 *(.comment)
 .comment       0x0000000000000000       0x30 udp-server.o
                                         0x31 (size before relaxing)
 .comment       0x0000000000000000       0x31 build/z1/obj/contiki-main.o
 .comment       0x0000000000000000       0x31 build/z1/contiki-ng-z1.a(uart0-putchar.o)
 .comment       0x0000000000000000       0x31 build/z1/contiki-ng-z1.a(platform.o)
 .comment       0x0000000000000000       0x31 build/z1/contiki-ng-z1.a(msp430.o)
 .comment       0x0000000000000000       0x31 build/z1/contiki-ng-z1.a(clock.o)
 .comment       0x0000000000000000       0x31 build/z1/contiki-ng-z1.a(watchdog.o)
 .comment       0x0000000000000000       0x31 build/z1/contiki-ng-z1.a(rtimer-arch.o)
 .comment       0x0000000000000000       0x31 build/z1/contiki-ng-z1.a(serial-shell.o)
 .comment       0x0000000000000000       0x31 build/z1/contiki-ng-z1.a(orchestra-rule-)
 .comment       0x0000000000000000       0x31 build/z1/contiki-ng-z1.a(orchestra-rule-)
 .comment       0x0000000000000000       0x31 build/z1/contiki-ng-z1.a(orchestra.o)
 .comment       0x0000000000000000       0x31 build/z1/contiki-ng-z1.a(orchestra-rule-)
 .comment       0x0000000000000000       0x31 build/z1/contiki-ng-z1.a(autostart.o)
 .comment       0x0000000000000000       0x31 build/z1/contiki-ng-z1.a(ctimer.o)
 .comment       0x0000000000000000       0x31 build/z1/contiki-ng-z1.a(energest.o)
 .comment       0x0000000000000000       0x31 build/z1/contiki-ng-z1.a(etimer.o)
 .comment       0x0000000000000000       0x31 build/z1/contiki-ng-z1.a(log.o)
 .comment       0x0000000000000000       0x31 build/z1/contiki-ng-z1.a(rtimer.o)
 .comment       0x0000000000000000       0x31 build/z1/contiki-ng-z1.a(node-id.o)
 .comment       0x0000000000000000       0x31 build/z1/contiki-ng-z1.a(process.o)
 .comment       0x0000000000000000       0x31 build/z1/contiki-ng-z1.a(timer.o)
 .comment       0x0000000000000000       0x31 build/z1/contiki-ng-z1.a(stack-check.o)
 .comment       0x0000000000000000       0x31 build/z1/contiki-ng-z1.a(list.o)
 .comment       0x0000000000000000       0x31 build/z1/contiki-ng-z1.a(random.o)
 .comment       0x0000000000000000       0x31 build/z1/contiki-ng-z1.a(serial-line.o)
 .comment       0x0000000000000000       0x31 build/z1/contiki-ng-z1.a(queuebuf.o)
 .comment       0x0000000000000000       0x31 build/z1/contiki-ng-z1.a(packetbuf.o)
 .comment       0x0000000000000000       0x31 build/z1/contiki-ng-z1.a(netstack.o)
 .comment       0x0000000000000000       0x31 build/z1/contiki-ng-z1.a(linkaddr.o)
 .comment       0x0000000000000000       0x31 build/z1/contiki-ng-z1.a(tsch.o)
 .comment       0x0000000000000000       0x31 build/z1/contiki-ng-z1.a(tsch-queue.o)
 .comment       0x0000000000000000       0x31 build/z1/contiki-ng-z1.a(tsch-schedule.o)
 .comment       0x0000000000000000       0x31 build/z1/contiki-ng-z1.a(tsch-slot-opera)
 .comment       0x0000000000000000       0x31 build/z1/contiki-ng-z1.a(tsch-packet.o)
 .comment       0x0000000000000000       0x31 build/z1/contiki-ng-z1.a(tsch-security.o)
 .comment       0x0000000000000000       0x31 build/z1/contiki-ng-z1.a(tsch-rpl.o)
 .comment       0x0000000000000000       0x31 build/z1/contiki-ng-z1.a(tsch-adaptive-t)
 .comment       0x0000000000000000       0x31 build/z1/contiki-ng-z1.a(uip-ds6.o)
 .comment       0x0000000000000000       0x31 build/z1/contiki-ng-z1.a(uiplib.o)
 .comment       0x0000000000000000       0x31 build/z1/contiki-ng-z1.a(uip-ds6-route.o)
 .comment       0x0000000000000000       0x31 build/z1/contiki-ng-z1.a(tcpip.o)
 .comment       0x0000000000000000       0x31 build/z1/contiki-ng-z1.a(uip6.o)
 .comment       0x0000000000000000       0x31 build/z1/contiki-ng-z1.a(uip-ds6-nbr.o)
 .comment       0x0000000000000000       0x31 build/z1/contiki-ng-z1.a(uip-nd6.o)
 .comment       0x0000000000000000       0x31 build/z1/contiki-ng-z1.a(simple-udp.o)
 .comment       0x0000000000000000       0x31 build/z1/contiki-ng-z1.a(sicslowpan.o)
 .comment       0x0000000000000000       0x31 build/z1/contiki-ng-z1.a(rpl-neighbor.o)
 .comment       0x0000000000000000       0x31 build/z1/contiki-ng-z1.a(rpl-dag.o)
 .comment       0x0000000000000000       0x31 build/z1/contiki-ng-z1.a(rpl-timers.o)
 .comment       0x0000000000000000       0x31 build/z1/contiki-ng-z1.a(rpl.o)
 .comment       0x0000000000000000       0x31 build/z1/contiki-ng-z1.a(rpl-mrhof.o)
 .comment       0x0000000000000000       0x31 build/z1/contiki-ng-z1.a(rpl-icmp6.o)
 .comment       0x0000000000000000       0x31 build/z1/contiki-ng-z1.a(rpl-dag-root.o)
 .comment       0x0000000000000000       0x31 build/z1/contiki-ng-z1.a(contiki-z1-plat)
 .comment       0x0000000000000000       0x31 build/z1/contiki-ng-z1.a(leds.o)
 .comment       0x0000000000000000       0x31 build/z1/contiki-ng-z1.a(xmem.o)
 .comment       0x0000000000000000       0x31 build/z1/contiki-ng-z1.a(spi-legacy.o)
 .comment       0x0000000000000000       0x31 build/z1/contiki-ng-z1.a(cc2420.o)
 .comment       0x0000000000000000       0x31 build/z1/contiki-ng-z1.a(cc2420-arch.o)
 .comment       0x0000000000000000       0x31 build/z1/contiki-ng-z1.a(cc2420-arch-sfd)
 .comment       0x0000000000000000       0x31 build/z1/contiki-ng-z1.a(node-id-z1.o)
 .comment       0x0000000000000000       0x31 build/z1/contiki-ng-z1.a(sensors.o)
 .comment       0x0000000000000000       0x31 build/z1/contiki-ng-z1.a(uart0.o)
 .comment       0x0000000000000000       0x31 build/z1/contiki-ng-z1.a(z1-sensors.o)
 .comment       0x0000000000000000       0x31 build/z1/contiki-ng-z1.a(adxl345.o)
 .comment       0x0000000000000000       0x31 build/z1/contiki-ng-z1.a(tmp102.o)
 .comment       0x0000000000000000       0x31 build/z1/contiki-ng-z1.a(leds-arch.o)
 .comment       0x0000000000000000       0x31 build/z1/contiki-ng-z1.a(int-master.o)
 .comment       0x0000000000000000       0x31 build/z1/contiki-ng-z1.a(shell.o)
 .comment       0x0000000000000000       0x31 build/z1/contiki-ng-z1.a(shell-commands.)
 .comment       0x0000000000000000       0x31 build/z1/contiki-ng-z1.a(stimer.o)
 .comment       0x0000000000000000       0x31 build/z1/contiki-ng-z1.a(ringbufindex.o)
 .comment       0x0000000000000000       0x31 build/z1/contiki-ng-z1.a(memb.o)
 .comment       0x0000000000000000       0x31 build/z1/contiki-ng-z1.a(nbr-table.o)
 .comment       0x0000000000000000       0x31 build/z1/contiki-ng-z1.a(link-stats.o)
 .comment       0x0000000000000000       0x31 build/z1/contiki-ng-z1.a(mac-sequence.o)
 .comment       0x0000000000000000       0x31 build/z1/contiki-ng-z1.a(mac.o)
 .comment       0x0000000000000000       0x31 build/z1/contiki-ng-z1.a(frame802154e-ie)
 .comment       0x0000000000000000       0x31 build/z1/contiki-ng-z1.a(framer-802154.o)
 .comment       0x0000000000000000       0x31 build/z1/contiki-ng-z1.a(frame802154.o)
 .comment       0x0000000000000000       0x31 build/z1/contiki-ng-z1.a(cc2420-tsch-15m)
 .comment       0x0000000000000000       0x31 build/z1/contiki-ng-z1.a(uipbuf.o)
 .comment       0x0000000000000000       0x31 build/z1/contiki-ng-z1.a(uip-icmp6.o)
 .comment       0x0000000000000000       0x31 build/z1/contiki-ng-z1.a(uip-sr.o)
 .comment       0x0000000000000000       0x31 build/z1/contiki-ng-z1.a(rpl-nbr-policy.)
 .comment       0x0000000000000000       0x31 build/z1/contiki-ng-z1.a(rpl-ext-header.)
 .comment       0x0000000000000000       0x31 build/z1/contiki-ng-z1.a(i2cmaster.o)
 .comment       0x0000000000000000       0x31 build/z1/contiki-ng-z1.a(button-sensor.o)
 .comment       0x0000000000000000       0x31 /opt/compiler/mspgcc-4.7.3/bin/../lib/gcc/msp430/4.7.3/mcpu-430x/mmpy-16/msr20/mc20/libgcc.a(_eq_sf.o)
 .comment       0x0000000000000000       0x31 /opt/compiler/mspgcc-4.7.3/bin/../lib/gcc/msp430/4.7.3/mcpu-430x/mmpy-16/msr20/mc20/libgcc.a(_gt_sf.o)
 .comment       0x0000000000000000       0x31 /opt/compiler/mspgcc-4.7.3/bin/../lib/gcc/msp430/4.7.3/mcpu-430x/mmpy-16/msr20/mc20/libgcc.a(_si_to_sf.o)
 .comment       0x0000000000000000       0x31 /opt/compiler/mspgcc-4.7.3/bin/../lib/gcc/msp430/4.7.3/mcpu-430x/mmpy-16/msr20/mc20/libgcc.a(_clzsi2.o)
 .comment       0x0000000000000000       0x31 /opt/compiler/mspgcc-4.7.3/bin/../lib/gcc/msp430/4.7.3/mcpu-430x/mmpy-16/msr20/mc20/libgcc.a(_pack_sf.o)
 .comment       0x0000000000000000       0x31 /opt/compiler/mspgcc-4.7.3/bin/../lib/gcc/msp430/4.7.3/mcpu-430x/mmpy-16/msr20/mc20/libgcc.a(_unpack_sf.o)
 .comment       0x0000000000000000       0x31 /opt/compiler/mspgcc-4.7.3/bin/../lib/gcc/msp430/4.7.3/mcpu-430x/mmpy-16/msr20/mc20/libgcc.a(_fpcmp_parts_sf.o)
 .comment       0x0000000000000000       0x31 /opt/compiler/mspgcc-4.7.3/bin/../lib/gcc/msp430/4.7.3/mcpu-430x/mmpy-16/msr20/mc20/libgcc.a(_clz.o)
 .comment       0x0000000000000000       0x31 /opt/compiler/mspgcc-4.7.3/bin/../lib/gcc/msp430/4.7.3/../../../../msp430/lib/mcpu-430x/mmpy-16/msr20/mc20/libc.a(strtol.o)
 .comment       0x0000000000000000       0x31 /opt/compiler/mspgcc-4.7.3/bin/../lib/gcc/msp430/4.7.3/../../../../msp430/lib/mcpu-430x/mmpy-16/msr20/mc20/libc.a(printf.o)
 .comment       0x0000000000000000       0x31 /opt/compiler/mspgcc-4.7.3/bin/../lib/gcc/msp430/4.7.3/../../../../msp430/lib/mcpu-430x/mmpy-16/msr20/mc20/libc.a(sprintf.o)
 .comment       0x0000000000000000       0x31 /opt/compiler/mspgcc-4.7.3/bin/../lib/gcc/msp430/4.7.3/../../../../msp430/lib/mcpu-430x/mmpy-16/msr20/mc20/libc.a(vuprintf.o)
 .comment       0x0000000000000000       0x31 /opt/compiler/mspgcc-4.7.3/bin/../lib/gcc/msp430/4.7.3/../../../../msp430/lib/mcpu-430x/mmpy-16/msr20/mc20/libc.a(puts.o)
 .comment       0x0000000000000000       0x31 /opt/compiler/mspgcc-4.7.3/bin/../lib/gcc/msp430/4.7.3/../../../../msp430/lib/mcpu-430x/mmpy-16/msr20/mc20/libc.a(rand.o)
 .comment       0x0000000000000000       0x31 /opt/compiler/mspgcc-4.7.3/bin/../lib/gcc/msp430/4.7.3/../../../../msp430/lib/mcpu-430x/mmpy-16/msr20/mc20/libc.a(strchr.o)
 .comment       0x0000000000000000       0x31 /opt/compiler/mspgcc-4.7.3/bin/../lib/gcc/msp430/4.7.3/../../../../msp430/lib/mcpu-430x/mmpy-16/msr20/mc20/libc.a(strcmp.o)
 .comment       0x0000000000000000       0x31 /opt/compiler/mspgcc-4.7.3/bin/../lib/gcc/msp430/4.7.3/../../../../msp430/lib/mcpu-430x/mmpy-16/msr20/mc20/libc.a(memcmp.o)
 .comment       0x0000000000000000       0x31 /opt/compiler/mspgcc-4.7.3/bin/../lib/gcc/msp430/4.7.3/../../../../msp430/lib/mcpu-430x/mmpy-16/msr20/mc20/libc.a(strcpy.o)
 .comment       0x0000000000000000       0x31 /opt/compiler/mspgcc-4.7.3/bin/../lib/gcc/msp430/4.7.3/../../../../msp430/lib/mcpu-430x/mmpy-16/msr20/mc20/libc.a(memcpy.o)
 .comment       0x0000000000000000       0x31 /opt/compiler/mspgcc-4.7.3/bin/../lib/gcc/msp430/4.7.3/../../../../msp430/lib/mcpu-430x/mmpy-16/msr20/mc20/libc.a(memmove.o)
 .comment       0x0000000000000000       0x31 /opt/compiler/mspgcc-4.7.3/bin/../lib/gcc/msp430/4.7.3/../../../../msp430/lib/mcpu-430x/mmpy-16/msr20/mc20/libc.a(memset.o)
 .comment       0x0000000000000000       0x31 /opt/compiler/mspgcc-4.7.3/bin/../lib/gcc/msp430/4.7.3/../../../../msp430/lib/mcpu-430x/mmpy-16/msr20/mc20/libc.a(strcat.o)
 .comment       0x0000000000000000       0x31 /opt/compiler/mspgcc-4.7.3/bin/../lib/gcc/msp430/4.7.3/../../../../msp430/lib/mcpu-430x/mmpy-16/msr20/mc20/libc.a(errno.o)

.debug
 *(.debug)

.line
 *(.line)

.debug_srcinfo
 *(.debug_srcinfo)

.debug_sfnames
 *(.debug_sfnames)

.debug_aranges  0x0000000000000000      0x518
 *(.debug_aranges)
 .debug_aranges
                0x0000000000000000       0x20 /opt/compiler/mspgcc-4.7.3/bin/../lib/gcc/msp430/4.7.3/mcpu-430x/mmpy-16/msr20/mc20/crt0ivtbl32.o
 .debug_aranges
                0x0000000000000020       0x20 /opt/compiler/mspgcc-4.7.3/bin/../lib/gcc/msp430/4.7.3/mcpu-430x/mmpy-16/msr20/mc20/libgcc.a(_mulsi3.o)
 .debug_aranges
                0x0000000000000040       0x20 /opt/compiler/mspgcc-4.7.3/bin/../lib/gcc/msp430/4.7.3/mcpu-430x/mmpy-16/msr20/mc20/libgcc.a(_mulsidi3.o)
 .debug_aranges
                0x0000000000000060       0x20 /opt/compiler/mspgcc-4.7.3/bin/../lib/gcc/msp430/4.7.3/mcpu-430x/mmpy-16/msr20/mc20/libgcc.a(_muldi3.o)
 .debug_aranges
                0x0000000000000080       0x20 /opt/compiler/mspgcc-4.7.3/bin/../lib/gcc/msp430/4.7.3/mcpu-430x/mmpy-16/msr20/mc20/libgcc.a(_udivmod16.o)
 .debug_aranges
                0x00000000000000a0       0x20 /opt/compiler/mspgcc-4.7.3/bin/../lib/gcc/msp430/4.7.3/mcpu-430x/mmpy-16/msr20/mc20/libgcc.a(_divmod16.o)
 .debug_aranges
                0x00000000000000c0       0x20 /opt/compiler/mspgcc-4.7.3/bin/../lib/gcc/msp430/4.7.3/mcpu-430x/mmpy-16/msr20/mc20/libgcc.a(_udivmod32.o)
 .debug_aranges
                0x00000000000000e0       0x20 /opt/compiler/mspgcc-4.7.3/bin/../lib/gcc/msp430/4.7.3/mcpu-430x/mmpy-16/msr20/mc20/libgcc.a(_divmod32.o)
 .debug_aranges
                0x0000000000000100       0x20 /opt/compiler/mspgcc-4.7.3/bin/../lib/gcc/msp430/4.7.3/mcpu-430x/mmpy-16/msr20/mc20/libgcc.a(_divmod64.o)
 .debug_aranges
                0x0000000000000120       0x20 /opt/compiler/mspgcc-4.7.3/bin/../lib/gcc/msp430/4.7.3/mcpu-430x/mmpy-16/msr20/mc20/libgcc.a(_eq_sf.o)
 .debug_aranges
                0x0000000000000140       0x20 /opt/compiler/mspgcc-4.7.3/bin/../lib/gcc/msp430/4.7.3/mcpu-430x/mmpy-16/msr20/mc20/libgcc.a(_gt_sf.o)
 .debug_aranges
                0x0000000000000160       0x20 /opt/compiler/mspgcc-4.7.3/bin/../lib/gcc/msp430/4.7.3/mcpu-430x/mmpy-16/msr20/mc20/libgcc.a(_si_to_sf.o)
 .debug_aranges
                0x0000000000000180       0x20 /opt/compiler/mspgcc-4.7.3/bin/../lib/gcc/msp430/4.7.3/mcpu-430x/mmpy-16/msr20/mc20/libgcc.a(_udivmod64.o)
 .debug_aranges
                0x00000000000001a0       0x20 /opt/compiler/mspgcc-4.7.3/bin/../lib/gcc/msp430/4.7.3/mcpu-430x/mmpy-16/msr20/mc20/libgcc.a(_clzsi2.o)
 .debug_aranges
                0x00000000000001c0       0x20 /opt/compiler/mspgcc-4.7.3/bin/../lib/gcc/msp430/4.7.3/mcpu-430x/mmpy-16/msr20/mc20/libgcc.a(_pack_sf.o)
 .debug_aranges
                0x00000000000001e0       0x20 /opt/compiler/mspgcc-4.7.3/bin/../lib/gcc/msp430/4.7.3/mcpu-430x/mmpy-16/msr20/mc20/libgcc.a(_unpack_sf.o)
 .debug_aranges
                0x0000000000000200       0x20 /opt/compiler/mspgcc-4.7.3/bin/../lib/gcc/msp430/4.7.3/mcpu-430x/mmpy-16/msr20/mc20/libgcc.a(_fpcmp_parts_sf.o)
 .debug_aranges
                0x0000000000000220       0x18 /opt/compiler/mspgcc-4.7.3/bin/../lib/gcc/msp430/4.7.3/mcpu-430x/mmpy-16/msr20/mc20/libgcc.a(_clz.o)
 .debug_aranges
                0x0000000000000238       0x20 /opt/compiler/mspgcc-4.7.3/bin/../lib/gcc/msp430/4.7.3/../../../../msp430/lib/mcpu-430x/mmpy-16/msr20/mc20/libc.a(strtol.o)
 .debug_aranges
                0x0000000000000258       0x28 /opt/compiler/mspgcc-4.7.3/bin/../lib/gcc/msp430/4.7.3/../../../../msp430/lib/mcpu-430x/mmpy-16/msr20/mc20/libc.a(printf.o)
 .debug_aranges
                0x0000000000000280       0x48 /opt/compiler/mspgcc-4.7.3/bin/../lib/gcc/msp430/4.7.3/../../../../msp430/lib/mcpu-430x/mmpy-16/msr20/mc20/libc.a(sprintf.o)
 .debug_aranges
                0x00000000000002c8       0x28 /opt/compiler/mspgcc-4.7.3/bin/../lib/gcc/msp430/4.7.3/../../../../msp430/lib/mcpu-430x/mmpy-16/msr20/mc20/libc.a(vuprintf.o)
 .debug_aranges
                0x00000000000002f0       0x20 /opt/compiler/mspgcc-4.7.3/bin/../lib/gcc/msp430/4.7.3/../../../../msp430/lib/mcpu-430x/mmpy-16/msr20/mc20/libc.a(puts.o)
 .debug_aranges
                0x0000000000000310       0x30 /opt/compiler/mspgcc-4.7.3/bin/../lib/gcc/msp430/4.7.3/../../../../msp430/lib/mcpu-430x/mmpy-16/msr20/mc20/libc.a(rand.o)
 .debug_aranges
                0x0000000000000340       0x20 /opt/compiler/mspgcc-4.7.3/bin/../lib/gcc/msp430/4.7.3/../../../../msp430/lib/mcpu-430x/mmpy-16/msr20/mc20/libc.a(strchr.o)
 .debug_aranges
                0x0000000000000360       0x20 /opt/compiler/mspgcc-4.7.3/bin/../lib/gcc/msp430/4.7.3/../../../../msp430/lib/mcpu-430x/mmpy-16/msr20/mc20/libc.a(strcmp.o)
 .debug_aranges
                0x0000000000000380       0x20 /opt/compiler/mspgcc-4.7.3/bin/../lib/gcc/msp430/4.7.3/../../../../msp430/lib/mcpu-430x/mmpy-16/msr20/mc20/libc.a(memcmp.o)
 .debug_aranges
                0x00000000000003a0       0x20 /opt/compiler/mspgcc-4.7.3/bin/../lib/gcc/msp430/4.7.3/../../../../msp430/lib/mcpu-430x/mmpy-16/msr20/mc20/libc.a(strcpy.o)
 .debug_aranges
                0x00000000000003c0       0x20 /opt/compiler/mspgcc-4.7.3/bin/../lib/gcc/msp430/4.7.3/../../../../msp430/lib/mcpu-430x/mmpy-16/msr20/mc20/libc.a(memcpy.o)
 .debug_aranges
                0x00000000000003e0       0x20 /opt/compiler/mspgcc-4.7.3/bin/../lib/gcc/msp430/4.7.3/../../../../msp430/lib/mcpu-430x/mmpy-16/msr20/mc20/libc.a(memmove.o)
 .debug_aranges
                0x0000000000000400       0x20 /opt/compiler/mspgcc-4.7.3/bin/../lib/gcc/msp430/4.7.3/../../../../msp430/lib/mcpu-430x/mmpy-16/msr20/mc20/libc.a(memset.o)
 .debug_aranges
                0x0000000000000420       0x20 /opt/compiler/mspgcc-4.7.3/bin/../lib/gcc/msp430/4.7.3/../../../../msp430/lib/mcpu-430x/mmpy-16/msr20/mc20/libc.a(strcat.o)
 .debug_aranges
                0x0000000000000440       0x18 /opt/compiler/mspgcc-4.7.3/bin/../lib/gcc/msp430/4.7.3/../../../../msp430/lib/mcpu-430x/mmpy-16/msr20/mc20/libc.a(errno.o)
 .debug_aranges
                0x0000000000000458       0x20 /opt/compiler/mspgcc-4.7.3/bin/../lib/gcc/msp430/4.7.3/mcpu-430x/mmpy-16/msr20/mc20/libcrt0.a(__watchdog_support.o)
 .debug_aranges
                0x0000000000000478       0x20 /opt/compiler/mspgcc-4.7.3/bin/../lib/gcc/msp430/4.7.3/mcpu-430x/mmpy-16/msr20/mc20/libcrt0.a(__init_stack.o)
 .debug_aranges
                0x0000000000000498       0x20 /opt/compiler/mspgcc-4.7.3/bin/../lib/gcc/msp430/4.7.3/mcpu-430x/mmpy-16/msr20/mc20/libcrt0.a(_copy_data.o)
 .debug_aranges
                0x00000000000004b8       0x20 /opt/compiler/mspgcc-4.7.3/bin/../lib/gcc/msp430/4.7.3/mcpu-430x/mmpy-16/msr20/mc20/libcrt0.a(_clear_bss.o)
 .debug_aranges
                0x00000000000004d8       0x20 /opt/compiler/mspgcc-4.7.3/bin/../lib/gcc/msp430/4.7.3/mcpu-430x/mmpy-16/msr20/mc20/libcrt0.a(_endless_loop__.o)
 .debug_aranges
                0x00000000000004f8       0x20 /opt/compiler/mspgcc-4.7.3/bin/../lib/gcc/msp430/4.7.3/mcpu-430x/mmpy-16/msr20/mc20/libcrt0.a(_unexpected_.o)

.debug_pubnames
 *(.debug_pubnames)

.debug_info     0x0000000000000000     0x34f1
 *(.debug_info)
 .debug_info    0x0000000000000000       0xbf /opt/compiler/mspgcc-4.7.3/bin/../lib/gcc/msp430/4.7.3/mcpu-430x/mmpy-16/msr20/mc20/crt0ivtbl32.o
 .debug_info    0x00000000000000bf       0xbc /opt/compiler/mspgcc-4.7.3/bin/../lib/gcc/msp430/4.7.3/mcpu-430x/mmpy-16/msr20/mc20/libgcc.a(_mulsi3.o)
 .debug_info    0x000000000000017b       0xbc /opt/compiler/mspgcc-4.7.3/bin/../lib/gcc/msp430/4.7.3/mcpu-430x/mmpy-16/msr20/mc20/libgcc.a(_mulsidi3.o)
 .debug_info    0x0000000000000237       0xbc /opt/compiler/mspgcc-4.7.3/bin/../lib/gcc/msp430/4.7.3/mcpu-430x/mmpy-16/msr20/mc20/libgcc.a(_muldi3.o)
 .debug_info    0x00000000000002f3       0xbc /opt/compiler/mspgcc-4.7.3/bin/../lib/gcc/msp430/4.7.3/mcpu-430x/mmpy-16/msr20/mc20/libgcc.a(_udivmod16.o)
 .debug_info    0x00000000000003af       0xbc /opt/compiler/mspgcc-4.7.3/bin/../lib/gcc/msp430/4.7.3/mcpu-430x/mmpy-16/msr20/mc20/libgcc.a(_divmod16.o)
 .debug_info    0x000000000000046b       0xbc /opt/compiler/mspgcc-4.7.3/bin/../lib/gcc/msp430/4.7.3/mcpu-430x/mmpy-16/msr20/mc20/libgcc.a(_udivmod32.o)
 .debug_info    0x0000000000000527       0xbc /opt/compiler/mspgcc-4.7.3/bin/../lib/gcc/msp430/4.7.3/mcpu-430x/mmpy-16/msr20/mc20/libgcc.a(_divmod32.o)
 .debug_info    0x00000000000005e3       0xbc /opt/compiler/mspgcc-4.7.3/bin/../lib/gcc/msp430/4.7.3/mcpu-430x/mmpy-16/msr20/mc20/libgcc.a(_divmod64.o)
 .debug_info    0x000000000000069f      0x30c /opt/compiler/mspgcc-4.7.3/bin/../lib/gcc/msp430/4.7.3/mcpu-430x/mmpy-16/msr20/mc20/libgcc.a(_eq_sf.o)
 .debug_info    0x00000000000009ab      0x30c /opt/compiler/mspgcc-4.7.3/bin/../lib/gcc/msp430/4.7.3/mcpu-430x/mmpy-16/msr20/mc20/libgcc.a(_gt_sf.o)
 .debug_info    0x0000000000000cb7      0x25d /opt/compiler/mspgcc-4.7.3/bin/../lib/gcc/msp430/4.7.3/mcpu-430x/mmpy-16/msr20/mc20/libgcc.a(_si_to_sf.o)
 .debug_info    0x0000000000000f14       0xbc /opt/compiler/mspgcc-4.7.3/bin/../lib/gcc/msp430/4.7.3/mcpu-430x/mmpy-16/msr20/mc20/libgcc.a(_udivmod64.o)
 .debug_info    0x0000000000000fd0      0x11d /opt/compiler/mspgcc-4.7.3/bin/../lib/gcc/msp430/4.7.3/mcpu-430x/mmpy-16/msr20/mc20/libgcc.a(_clzsi2.o)
 .debug_info    0x00000000000010ed      0x2ce /opt/compiler/mspgcc-4.7.3/bin/../lib/gcc/msp430/4.7.3/mcpu-430x/mmpy-16/msr20/mc20/libgcc.a(_pack_sf.o)
 .debug_info    0x00000000000013bb      0x256 /opt/compiler/mspgcc-4.7.3/bin/../lib/gcc/msp430/4.7.3/mcpu-430x/mmpy-16/msr20/mc20/libgcc.a(_unpack_sf.o)
 .debug_info    0x0000000000001611      0x1e9 /opt/compiler/mspgcc-4.7.3/bin/../lib/gcc/msp430/4.7.3/mcpu-430x/mmpy-16/msr20/mc20/libgcc.a(_fpcmp_parts_sf.o)
 .debug_info    0x00000000000017fa       0xc5 /opt/compiler/mspgcc-4.7.3/bin/../lib/gcc/msp430/4.7.3/mcpu-430x/mmpy-16/msr20/mc20/libgcc.a(_clz.o)
 .debug_info    0x00000000000018bf      0x220 /opt/compiler/mspgcc-4.7.3/bin/../lib/gcc/msp430/4.7.3/../../../../msp430/lib/mcpu-430x/mmpy-16/msr20/mc20/libc.a(strtol.o)
 .debug_info    0x0000000000001adf      0x18d /opt/compiler/mspgcc-4.7.3/bin/../lib/gcc/msp430/4.7.3/../../../../msp430/lib/mcpu-430x/mmpy-16/msr20/mc20/libc.a(printf.o)
 .debug_info    0x0000000000001c6c      0x352 /opt/compiler/mspgcc-4.7.3/bin/../lib/gcc/msp430/4.7.3/../../../../msp430/lib/mcpu-430x/mmpy-16/msr20/mc20/libc.a(sprintf.o)
 .debug_info    0x0000000000001fbe      0x673 /opt/compiler/mspgcc-4.7.3/bin/../lib/gcc/msp430/4.7.3/../../../../msp430/lib/mcpu-430x/mmpy-16/msr20/mc20/libc.a(vuprintf.o)
 .debug_info    0x0000000000002631       0xe1 /opt/compiler/mspgcc-4.7.3/bin/../lib/gcc/msp430/4.7.3/../../../../msp430/lib/mcpu-430x/mmpy-16/msr20/mc20/libc.a(puts.o)
 .debug_info    0x0000000000002712      0x172 /opt/compiler/mspgcc-4.7.3/bin/../lib/gcc/msp430/4.7.3/../../../../msp430/lib/mcpu-430x/mmpy-16/msr20/mc20/libc.a(rand.o)
 .debug_info    0x0000000000002884       0xc2 /opt/compiler/mspgcc-4.7.3/bin/../lib/gcc/msp430/4.7.3/../../../../msp430/lib/mcpu-430x/mmpy-16/msr20/mc20/libc.a(strchr.o)
 .debug_info    0x0000000000002946       0xbf /opt/compiler/mspgcc-4.7.3/bin/../lib/gcc/msp430/4.7.3/../../../../msp430/lib/mcpu-430x/mmpy-16/msr20/mc20/libc.a(strcmp.o)
 .debug_info    0x0000000000002a05       0xff /opt/compiler/mspgcc-4.7.3/bin/../lib/gcc/msp430/4.7.3/../../../../msp430/lib/mcpu-430x/mmpy-16/msr20/mc20/libc.a(memcmp.o)
 .debug_info    0x0000000000002b04       0xd3 /opt/compiler/mspgcc-4.7.3/bin/../lib/gcc/msp430/4.7.3/../../../../msp430/lib/mcpu-430x/mmpy-16/msr20/mc20/libc.a(strcpy.o)
 .debug_info    0x0000000000002bd7      0x144 /opt/compiler/mspgcc-4.7.3/bin/../lib/gcc/msp430/4.7.3/../../../../msp430/lib/mcpu-430x/mmpy-16/msr20/mc20/libc.a(memcpy.o)
 .debug_info    0x0000000000002d1b      0x144 /opt/compiler/mspgcc-4.7.3/bin/../lib/gcc/msp430/4.7.3/../../../../msp430/lib/mcpu-430x/mmpy-16/msr20/mc20/libc.a(memmove.o)
 .debug_info    0x0000000000002e5f      0x12d /opt/compiler/mspgcc-4.7.3/bin/../lib/gcc/msp430/4.7.3/../../../../msp430/lib/mcpu-430x/mmpy-16/msr20/mc20/libc.a(memset.o)
 .debug_info    0x0000000000002f8c       0xd2 /opt/compiler/mspgcc-4.7.3/bin/../lib/gcc/msp430/4.7.3/../../../../msp430/lib/mcpu-430x/mmpy-16/msr20/mc20/libc.a(strcat.o)
 .debug_info    0x000000000000305e       0x37 /opt/compiler/mspgcc-4.7.3/bin/../lib/gcc/msp430/4.7.3/../../../../msp430/lib/mcpu-430x/mmpy-16/msr20/mc20/libc.a(errno.o)
 .debug_info    0x0000000000003095       0xba /opt/compiler/mspgcc-4.7.3/bin/../lib/gcc/msp430/4.7.3/mcpu-430x/mmpy-16/msr20/mc20/libcrt0.a(__watchdog_support.o)
 .debug_info    0x000000000000314f       0xba /opt/compiler/mspgcc-4.7.3/bin/../lib/gcc/msp430/4.7.3/mcpu-430x/mmpy-16/msr20/mc20/libcrt0.a(__init_stack.o)
 .debug_info    0x0000000000003209       0xba /opt/compiler/mspgcc-4.7.3/bin/../lib/gcc/msp430/4.7.3/mcpu-430x/mmpy-16/msr20/mc20/libcrt0.a(_copy_data.o)
 .debug_info    0x00000000000032c3       0xba /opt/compiler/mspgcc-4.7.3/bin/../lib/gcc/msp430/4.7.3/mcpu-430x/mmpy-16/msr20/mc20/libcrt0.a(_clear_bss.o)
 .debug_info    0x000000000000337d       0xba /opt/compiler/mspgcc-4.7.3/bin/../lib/gcc/msp430/4.7.3/mcpu-430x/mmpy-16/msr20/mc20/libcrt0.a(_endless_loop__.o)
 .debug_info    0x0000000000003437       0xba /opt/compiler/mspgcc-4.7.3/bin/../lib/gcc/msp430/4.7.3/mcpu-430x/mmpy-16/msr20/mc20/libcrt0.a(_unexpected_.o)
 *(.gnu.linkonce.wi.*)

.debug_abbrev   0x0000000000000000     0x173e
 *(.debug_abbrev)
 .debug_abbrev  0x0000000000000000       0x14 /opt/compiler/mspgcc-4.7.3/bin/../lib/gcc/msp430/4.7.3/mcpu-430x/mmpy-16/msr20/mc20/crt0ivtbl32.o
 .debug_abbrev  0x0000000000000014       0x14 /opt/compiler/mspgcc-4.7.3/bin/../lib/gcc/msp430/4.7.3/mcpu-430x/mmpy-16/msr20/mc20/libgcc.a(_mulsi3.o)
 .debug_abbrev  0x0000000000000028       0x14 /opt/compiler/mspgcc-4.7.3/bin/../lib/gcc/msp430/4.7.3/mcpu-430x/mmpy-16/msr20/mc20/libgcc.a(_mulsidi3.o)
 .debug_abbrev  0x000000000000003c       0x14 /opt/compiler/mspgcc-4.7.3/bin/../lib/gcc/msp430/4.7.3/mcpu-430x/mmpy-16/msr20/mc20/libgcc.a(_muldi3.o)
 .debug_abbrev  0x0000000000000050       0x14 /opt/compiler/mspgcc-4.7.3/bin/../lib/gcc/msp430/4.7.3/mcpu-430x/mmpy-16/msr20/mc20/libgcc.a(_udivmod16.o)
 .debug_abbrev  0x0000000000000064       0x14 /opt/compiler/mspgcc-4.7.3/bin/../lib/gcc/msp430/4.7.3/mcpu-430x/mmpy-16/msr20/mc20/libgcc.a(_divmod16.o)
 .debug_abbrev  0x0000000000000078       0x14 /opt/compiler/mspgcc-4.7.3/bin/../lib/gcc/msp430/4.7.3/mcpu-430x/mmpy-16/msr20/mc20/libgcc.a(_udivmod32.o)
 .debug_abbrev  0x000000000000008c       0x14 /opt/compiler/mspgcc-4.7.3/bin/../lib/gcc/msp430/4.7.3/mcpu-430x/mmpy-16/msr20/mc20/libgcc.a(_divmod32.o)
 .debug_abbrev  0x00000000000000a0       0x14 /opt/compiler/mspgcc-4.7.3/bin/../lib/gcc/msp430/4.7.3/mcpu-430x/mmpy-16/msr20/mc20/libgcc.a(_divmod64.o)
 .debug_abbrev  0x00000000000000b4      0x1a7 /opt/compiler/mspgcc-4.7.3/bin/../lib/gcc/msp430/4.7.3/mcpu-430x/mmpy-16/msr20/mc20/libgcc.a(_eq_sf.o)
 .debug_abbrev  0x000000000000025b      0x1a7 /opt/compiler/mspgcc-4.7.3/bin/../lib/gcc/msp430/4.7.3/mcpu-430x/mmpy-16/msr20/mc20/libgcc.a(_gt_sf.o)
 .debug_abbrev  0x0000000000000402      0x1a0 /opt/compiler/mspgcc-4.7.3/bin/../lib/gcc/msp430/4.7.3/mcpu-430x/mmpy-16/msr20/mc20/libgcc.a(_si_to_sf.o)
 .debug_abbrev  0x00000000000005a2       0x14 /opt/compiler/mspgcc-4.7.3/bin/../lib/gcc/msp430/4.7.3/mcpu-430x/mmpy-16/msr20/mc20/libgcc.a(_udivmod64.o)
 .debug_abbrev  0x00000000000005b6       0xb1 /opt/compiler/mspgcc-4.7.3/bin/../lib/gcc/msp430/4.7.3/mcpu-430x/mmpy-16/msr20/mc20/libgcc.a(_clzsi2.o)
 .debug_abbrev  0x0000000000000667      0x199 /opt/compiler/mspgcc-4.7.3/bin/../lib/gcc/msp430/4.7.3/mcpu-430x/mmpy-16/msr20/mc20/libgcc.a(_pack_sf.o)
 .debug_abbrev  0x0000000000000800      0x152 /opt/compiler/mspgcc-4.7.3/bin/../lib/gcc/msp430/4.7.3/mcpu-430x/mmpy-16/msr20/mc20/libgcc.a(_unpack_sf.o)
 .debug_abbrev  0x0000000000000952      0x110 /opt/compiler/mspgcc-4.7.3/bin/../lib/gcc/msp430/4.7.3/mcpu-430x/mmpy-16/msr20/mc20/libgcc.a(_fpcmp_parts_sf.o)
 .debug_abbrev  0x0000000000000a62       0x75 /opt/compiler/mspgcc-4.7.3/bin/../lib/gcc/msp430/4.7.3/mcpu-430x/mmpy-16/msr20/mc20/libgcc.a(_clz.o)
 .debug_abbrev  0x0000000000000ad7      0x12d /opt/compiler/mspgcc-4.7.3/bin/../lib/gcc/msp430/4.7.3/../../../../msp430/lib/mcpu-430x/mmpy-16/msr20/mc20/libc.a(strtol.o)
 .debug_abbrev  0x0000000000000c04       0xfa /opt/compiler/mspgcc-4.7.3/bin/../lib/gcc/msp430/4.7.3/../../../../msp430/lib/mcpu-430x/mmpy-16/msr20/mc20/libc.a(printf.o)
 .debug_abbrev  0x0000000000000cfe      0x14c /opt/compiler/mspgcc-4.7.3/bin/../lib/gcc/msp430/4.7.3/../../../../msp430/lib/mcpu-430x/mmpy-16/msr20/mc20/libc.a(sprintf.o)
 .debug_abbrev  0x0000000000000e4a      0x23e /opt/compiler/mspgcc-4.7.3/bin/../lib/gcc/msp430/4.7.3/../../../../msp430/lib/mcpu-430x/mmpy-16/msr20/mc20/libc.a(vuprintf.o)
 .debug_abbrev  0x0000000000001088       0xa3 /opt/compiler/mspgcc-4.7.3/bin/../lib/gcc/msp430/4.7.3/../../../../msp430/lib/mcpu-430x/mmpy-16/msr20/mc20/libc.a(puts.o)
 .debug_abbrev  0x000000000000112b       0xfb /opt/compiler/mspgcc-4.7.3/bin/../lib/gcc/msp430/4.7.3/../../../../msp430/lib/mcpu-430x/mmpy-16/msr20/mc20/libc.a(rand.o)
 .debug_abbrev  0x0000000000001226       0x74 /opt/compiler/mspgcc-4.7.3/bin/../lib/gcc/msp430/4.7.3/../../../../msp430/lib/mcpu-430x/mmpy-16/msr20/mc20/libc.a(strchr.o)
 .debug_abbrev  0x000000000000129a       0x65 /opt/compiler/mspgcc-4.7.3/bin/../lib/gcc/msp430/4.7.3/../../../../msp430/lib/mcpu-430x/mmpy-16/msr20/mc20/libc.a(strcmp.o)
 .debug_abbrev  0x00000000000012ff       0x9e /opt/compiler/mspgcc-4.7.3/bin/../lib/gcc/msp430/4.7.3/../../../../msp430/lib/mcpu-430x/mmpy-16/msr20/mc20/libc.a(memcmp.o)
 .debug_abbrev  0x000000000000139d       0x83 /opt/compiler/mspgcc-4.7.3/bin/../lib/gcc/msp430/4.7.3/../../../../msp430/lib/mcpu-430x/mmpy-16/msr20/mc20/libc.a(strcpy.o)
 .debug_abbrev  0x0000000000001420       0xab /opt/compiler/mspgcc-4.7.3/bin/../lib/gcc/msp430/4.7.3/../../../../msp430/lib/mcpu-430x/mmpy-16/msr20/mc20/libc.a(memcpy.o)
 .debug_abbrev  0x00000000000014cb       0xab /opt/compiler/mspgcc-4.7.3/bin/../lib/gcc/msp430/4.7.3/../../../../msp430/lib/mcpu-430x/mmpy-16/msr20/mc20/libc.a(memmove.o)
 .debug_abbrev  0x0000000000001576       0xa1 /opt/compiler/mspgcc-4.7.3/bin/../lib/gcc/msp430/4.7.3/../../../../msp430/lib/mcpu-430x/mmpy-16/msr20/mc20/libc.a(memset.o)
 .debug_abbrev  0x0000000000001617       0x83 /opt/compiler/mspgcc-4.7.3/bin/../lib/gcc/msp430/4.7.3/../../../../msp430/lib/mcpu-430x/mmpy-16/msr20/mc20/libc.a(strcat.o)
 .debug_abbrev  0x000000000000169a       0x2c /opt/compiler/mspgcc-4.7.3/bin/../lib/gcc/msp430/4.7.3/../../../../msp430/lib/mcpu-430x/mmpy-16/msr20/mc20/libc.a(errno.o)
 .debug_abbrev  0x00000000000016c6       0x14 /opt/compiler/mspgcc-4.7.3/bin/../lib/gcc/msp430/4.7.3/mcpu-430x/mmpy-16/msr20/mc20/libcrt0.a(__watchdog_support.o)
 .debug_abbrev  0x00000000000016da       0x14 /opt/compiler/mspgcc-4.7.3/bin/../lib/gcc/msp430/4.7.3/mcpu-430x/mmpy-16/msr20/mc20/libcrt0.a(__init_stack.o)
 .debug_abbrev  0x00000000000016ee       0x14 /opt/compiler/mspgcc-4.7.3/bin/../lib/gcc/msp430/4.7.3/mcpu-430x/mmpy-16/msr20/mc20/libcrt0.a(_copy_data.o)
 .debug_abbrev  0x0000000000001702       0x14 /opt/compiler/mspgcc-4.7.3/bin/../lib/gcc/msp430/4.7.3/mcpu-430x/mmpy-16/msr20/mc20/libcrt0.a(_clear_bss.o)
 .debug_abbrev  0x0000000000001716       0x14 /opt/compiler/mspgcc-4.7.3/bin/../lib/gcc/msp430/4.7.3/mcpu-430x/mmpy-16/msr20/mc20/libcrt0.a(_endless_loop__.o)
 .debug_abbrev  0x000000000000172a       0x14 /opt/compiler/mspgcc-4.7.3/bin/../lib/gcc/msp430/4.7.3/mcpu-430x/mmpy-16/msr20/mc20/libcrt0.a(_unexpected_.o)

.debug_line     0x0000000000000000     0x1935
 *(.debug_line)
 .debug_line    0x0000000000000000       0x6f /opt/compiler/mspgcc-4.7.3/bin/../lib/gcc/msp430/4.7.3/mcpu-430x/mmpy-16/msr20/mc20/crt0ivtbl32.o
 .debug_line    0x000000000000006f       0x7f /opt/compiler/mspgcc-4.7.3/bin/../lib/gcc/msp430/4.7.3/mcpu-430x/mmpy-16/msr20/mc20/libgcc.a(_mulsi3.o)
 .debug_line    0x00000000000000ee       0x82 /opt/compiler/mspgcc-4.7.3/bin/../lib/gcc/msp430/4.7.3/mcpu-430x/mmpy-16/msr20/mc20/libgcc.a(_mulsidi3.o)
 .debug_line    0x0000000000000170       0x97 /opt/compiler/mspgcc-4.7.3/bin/../lib/gcc/msp430/4.7.3/mcpu-430x/mmpy-16/msr20/mc20/libgcc.a(_muldi3.o)
 .debug_line    0x0000000000000207       0x7b /opt/compiler/mspgcc-4.7.3/bin/../lib/gcc/msp430/4.7.3/mcpu-430x/mmpy-16/msr20/mc20/libgcc.a(_udivmod16.o)
 .debug_line    0x0000000000000282       0x86 /opt/compiler/mspgcc-4.7.3/bin/../lib/gcc/msp430/4.7.3/mcpu-430x/mmpy-16/msr20/mc20/libgcc.a(_divmod16.o)
 .debug_line    0x0000000000000308       0x86 /opt/compiler/mspgcc-4.7.3/bin/../lib/gcc/msp430/4.7.3/mcpu-430x/mmpy-16/msr20/mc20/libgcc.a(_udivmod32.o)
 .debug_line    0x000000000000038e       0x8f /opt/compiler/mspgcc-4.7.3/bin/../lib/gcc/msp430/4.7.3/mcpu-430x/mmpy-16/msr20/mc20/libgcc.a(_divmod32.o)
 .debug_line    0x000000000000041d       0xb7 /opt/compiler/mspgcc-4.7.3/bin/../lib/gcc/msp430/4.7.3/mcpu-430x/mmpy-16/msr20/mc20/libgcc.a(_divmod64.o)
 .debug_line    0x00000000000004d4       0x7a /opt/compiler/mspgcc-4.7.3/bin/../lib/gcc/msp430/4.7.3/mcpu-430x/mmpy-16/msr20/mc20/libgcc.a(_eq_sf.o)
 .debug_line    0x000000000000054e       0x7a /opt/compiler/mspgcc-4.7.3/bin/../lib/gcc/msp430/4.7.3/mcpu-430x/mmpy-16/msr20/mc20/libgcc.a(_gt_sf.o)
 .debug_line    0x00000000000005c8       0x92 /opt/compiler/mspgcc-4.7.3/bin/../lib/gcc/msp430/4.7.3/mcpu-430x/mmpy-16/msr20/mc20/libgcc.a(_si_to_sf.o)
 .debug_line    0x000000000000065a       0xc4 /opt/compiler/mspgcc-4.7.3/bin/../lib/gcc/msp430/4.7.3/mcpu-430x/mmpy-16/msr20/mc20/libgcc.a(_udivmod64.o)
 .debug_line    0x000000000000071e       0x9d /opt/compiler/mspgcc-4.7.3/bin/../lib/gcc/msp430/4.7.3/mcpu-430x/mmpy-16/msr20/mc20/libgcc.a(_clzsi2.o)
 .debug_line    0x00000000000007bb       0xc2 /opt/compiler/mspgcc-4.7.3/bin/../lib/gcc/msp430/4.7.3/mcpu-430x/mmpy-16/msr20/mc20/libgcc.a(_pack_sf.o)
 .debug_line    0x000000000000087d       0xa4 /opt/compiler/mspgcc-4.7.3/bin/../lib/gcc/msp430/4.7.3/mcpu-430x/mmpy-16/msr20/mc20/libgcc.a(_unpack_sf.o)
 .debug_line    0x0000000000000921       0xba /opt/compiler/mspgcc-4.7.3/bin/../lib/gcc/msp430/4.7.3/mcpu-430x/mmpy-16/msr20/mc20/libgcc.a(_fpcmp_parts_sf.o)
 .debug_line    0x00000000000009db       0xa4 /opt/compiler/mspgcc-4.7.3/bin/../lib/gcc/msp430/4.7.3/mcpu-430x/mmpy-16/msr20/mc20/libgcc.a(_clz.o)
 .debug_line    0x0000000000000a7f      0x108 /opt/compiler/mspgcc-4.7.3/bin/../lib/gcc/msp430/4.7.3/../../../../msp430/lib/mcpu-430x/mmpy-16/msr20/mc20/libc.a(strtol.o)
 .debug_line    0x0000000000000b87       0xaf /opt/compiler/mspgcc-4.7.3/bin/../lib/gcc/msp430/4.7.3/../../../../msp430/lib/mcpu-430x/mmpy-16/msr20/mc20/libc.a(printf.o)
 .debug_line    0x0000000000000c36      0x115 /opt/compiler/mspgcc-4.7.3/bin/../lib/gcc/msp430/4.7.3/../../../../msp430/lib/mcpu-430x/mmpy-16/msr20/mc20/libc.a(sprintf.o)
 .debug_line    0x0000000000000d4b      0x35f /opt/compiler/mspgcc-4.7.3/bin/../lib/gcc/msp430/4.7.3/../../../../msp430/lib/mcpu-430x/mmpy-16/msr20/mc20/libc.a(vuprintf.o)
 .debug_line    0x00000000000010aa       0x67 /opt/compiler/mspgcc-4.7.3/bin/../lib/gcc/msp430/4.7.3/../../../../msp430/lib/mcpu-430x/mmpy-16/msr20/mc20/libc.a(puts.o)
 .debug_line    0x0000000000001111       0x6e /opt/compiler/mspgcc-4.7.3/bin/../lib/gcc/msp430/4.7.3/../../../../msp430/lib/mcpu-430x/mmpy-16/msr20/mc20/libc.a(rand.o)
 .debug_line    0x000000000000117f       0x46 /opt/compiler/mspgcc-4.7.3/bin/../lib/gcc/msp430/4.7.3/../../../../msp430/lib/mcpu-430x/mmpy-16/msr20/mc20/libc.a(strchr.o)
 .debug_line    0x00000000000011c5       0x4b /opt/compiler/mspgcc-4.7.3/bin/../lib/gcc/msp430/4.7.3/../../../../msp430/lib/mcpu-430x/mmpy-16/msr20/mc20/libc.a(strcmp.o)
 .debug_line    0x0000000000001210       0x93 /opt/compiler/mspgcc-4.7.3/bin/../lib/gcc/msp430/4.7.3/../../../../msp430/lib/mcpu-430x/mmpy-16/msr20/mc20/libc.a(memcmp.o)
 .debug_line    0x00000000000012a3       0x4f /opt/compiler/mspgcc-4.7.3/bin/../lib/gcc/msp430/4.7.3/../../../../msp430/lib/mcpu-430x/mmpy-16/msr20/mc20/libc.a(strcpy.o)
 .debug_line    0x00000000000012f2      0x11c /opt/compiler/mspgcc-4.7.3/bin/../lib/gcc/msp430/4.7.3/../../../../msp430/lib/mcpu-430x/mmpy-16/msr20/mc20/libc.a(memcpy.o)
 .debug_line    0x000000000000140e      0x11b /opt/compiler/mspgcc-4.7.3/bin/../lib/gcc/msp430/4.7.3/../../../../msp430/lib/mcpu-430x/mmpy-16/msr20/mc20/libc.a(memmove.o)
 .debug_line    0x0000000000001529       0xf6 /opt/compiler/mspgcc-4.7.3/bin/../lib/gcc/msp430/4.7.3/../../../../msp430/lib/mcpu-430x/mmpy-16/msr20/mc20/libc.a(memset.o)
 .debug_line    0x000000000000161f       0x54 /opt/compiler/mspgcc-4.7.3/bin/../lib/gcc/msp430/4.7.3/../../../../msp430/lib/mcpu-430x/mmpy-16/msr20/mc20/libc.a(strcat.o)
 .debug_line    0x0000000000001673       0x31 /opt/compiler/mspgcc-4.7.3/bin/../lib/gcc/msp430/4.7.3/../../../../msp430/lib/mcpu-430x/mmpy-16/msr20/mc20/libc.a(errno.o)
 .debug_line    0x00000000000016a4       0x6d /opt/compiler/mspgcc-4.7.3/bin/../lib/gcc/msp430/4.7.3/mcpu-430x/mmpy-16/msr20/mc20/libcrt0.a(__watchdog_support.o)
 .debug_line    0x0000000000001711       0x6b /opt/compiler/mspgcc-4.7.3/bin/../lib/gcc/msp430/4.7.3/mcpu-430x/mmpy-16/msr20/mc20/libcrt0.a(__init_stack.o)
 .debug_line    0x000000000000177c       0x71 /opt/compiler/mspgcc-4.7.3/bin/../lib/gcc/msp430/4.7.3/mcpu-430x/mmpy-16/msr20/mc20/libcrt0.a(_copy_data.o)
 .debug_line    0x00000000000017ed       0x71 /opt/compiler/mspgcc-4.7.3/bin/../lib/gcc/msp430/4.7.3/mcpu-430x/mmpy-16/msr20/mc20/libcrt0.a(_clear_bss.o)
 .debug_line    0x000000000000185e       0x6c /opt/compiler/mspgcc-4.7.3/bin/../lib/gcc/msp430/4.7.3/mcpu-430x/mmpy-16/msr20/mc20/libcrt0.a(_endless_loop__.o)
 .debug_line    0x00000000000018ca       0x6b /opt/compiler/mspgcc-4.7.3/bin/../lib/gcc/msp430/4.7.3/mcpu-430x/mmpy-16/msr20/mc20/libcrt0.a(_unexpected_.o)

.debug_frame    0x0000000000000000      0x47c
 *(.debug_frame)
 .debug_frame   0x0000000000000000       0x28 /opt/compiler/mspgcc-4.7.3/bin/../lib/gcc/msp430/4.7.3/mcpu-430x/mmpy-16/msr20/mc20/libgcc.a(_eq_sf.o)
 .debug_frame   0x0000000000000028       0x28 /opt/compiler/mspgcc-4.7.3/bin/../lib/gcc/msp430/4.7.3/mcpu-430x/mmpy-16/msr20/mc20/libgcc.a(_gt_sf.o)
 .debug_frame   0x0000000000000050       0x30 /opt/compiler/mspgcc-4.7.3/bin/../lib/gcc/msp430/4.7.3/mcpu-430x/mmpy-16/msr20/mc20/libgcc.a(_si_to_sf.o)
 .debug_frame   0x0000000000000080       0x30 /opt/compiler/mspgcc-4.7.3/bin/../lib/gcc/msp430/4.7.3/mcpu-430x/mmpy-16/msr20/mc20/libgcc.a(_clzsi2.o)
 .debug_frame   0x00000000000000b0       0x30 /opt/compiler/mspgcc-4.7.3/bin/../lib/gcc/msp430/4.7.3/mcpu-430x/mmpy-16/msr20/mc20/libgcc.a(_pack_sf.o)
 .debug_frame   0x00000000000000e0       0x30 /opt/compiler/mspgcc-4.7.3/bin/../lib/gcc/msp430/4.7.3/mcpu-430x/mmpy-16/msr20/mc20/libgcc.a(_unpack_sf.o)
 .debug_frame   0x0000000000000110       0x2c /opt/compiler/mspgcc-4.7.3/bin/../lib/gcc/msp430/4.7.3/mcpu-430x/mmpy-16/msr20/mc20/libgcc.a(_fpcmp_parts_sf.o)
 .debug_frame   0x000000000000013c       0x40 /opt/compiler/mspgcc-4.7.3/bin/../lib/gcc/msp430/4.7.3/../../../../msp430/lib/mcpu-430x/mmpy-16/msr20/mc20/libc.a(strtol.o)
 .debug_frame   0x000000000000017c       0x34 /opt/compiler/mspgcc-4.7.3/bin/../lib/gcc/msp430/4.7.3/../../../../msp430/lib/mcpu-430x/mmpy-16/msr20/mc20/libc.a(printf.o)
 .debug_frame   0x00000000000001b0       0x80 /opt/compiler/mspgcc-4.7.3/bin/../lib/gcc/msp430/4.7.3/../../../../msp430/lib/mcpu-430x/mmpy-16/msr20/mc20/libc.a(sprintf.o)
 .debug_frame   0x0000000000000230       0x88 /opt/compiler/mspgcc-4.7.3/bin/../lib/gcc/msp430/4.7.3/../../../../msp430/lib/mcpu-430x/mmpy-16/msr20/mc20/libc.a(vuprintf.o)
 .debug_frame   0x00000000000002b8       0x2c /opt/compiler/mspgcc-4.7.3/bin/../lib/gcc/msp430/4.7.3/../../../../msp430/lib/mcpu-430x/mmpy-16/msr20/mc20/libc.a(puts.o)
 .debug_frame   0x00000000000002e4       0x4c /opt/compiler/mspgcc-4.7.3/bin/../lib/gcc/msp430/4.7.3/../../../../msp430/lib/mcpu-430x/mmpy-16/msr20/mc20/libc.a(rand.o)
 .debug_frame   0x0000000000000330       0x24 /opt/compiler/mspgcc-4.7.3/bin/../lib/gcc/msp430/4.7.3/../../../../msp430/lib/mcpu-430x/mmpy-16/msr20/mc20/libc.a(strchr.o)
 .debug_frame   0x0000000000000354       0x24 /opt/compiler/mspgcc-4.7.3/bin/../lib/gcc/msp430/4.7.3/../../../../msp430/lib/mcpu-430x/mmpy-16/msr20/mc20/libc.a(strcmp.o)
 .debug_frame   0x0000000000000378       0x2c /opt/compiler/mspgcc-4.7.3/bin/../lib/gcc/msp430/4.7.3/../../../../msp430/lib/mcpu-430x/mmpy-16/msr20/mc20/libc.a(memcmp.o)
 .debug_frame   0x00000000000003a4       0x24 /opt/compiler/mspgcc-4.7.3/bin/../lib/gcc/msp430/4.7.3/../../../../msp430/lib/mcpu-430x/mmpy-16/msr20/mc20/libc.a(strcpy.o)
 .debug_frame   0x00000000000003c8       0x30 /opt/compiler/mspgcc-4.7.3/bin/../lib/gcc/msp430/4.7.3/../../../../msp430/lib/mcpu-430x/mmpy-16/msr20/mc20/libc.a(memcpy.o)
 .debug_frame   0x00000000000003f8       0x30 /opt/compiler/mspgcc-4.7.3/bin/../lib/gcc/msp430/4.7.3/../../../../msp430/lib/mcpu-430x/mmpy-16/msr20/mc20/libc.a(memmove.o)
 .debug_frame   0x0000000000000428       0x30 /opt/compiler/mspgcc-4.7.3/bin/../lib/gcc/msp430/4.7.3/../../../../msp430/lib/mcpu-430x/mmpy-16/msr20/mc20/libc.a(memset.o)
 .debug_frame   0x0000000000000458       0x24 /opt/compiler/mspgcc-4.7.3/bin/../lib/gcc/msp430/4.7.3/../../../../msp430/lib/mcpu-430x/mmpy-16/msr20/mc20/libc.a(strcat.o)

.debug_str      0x0000000000000000      0x7dd
 *(.debug_str)
 .debug_str     0x0000000000000000      0x1d3 /opt/compiler/mspgcc-4.7.3/bin/../lib/gcc/msp430/4.7.3/mcpu-430x/mmpy-16/msr20/mc20/libgcc.a(_eq_sf.o)
                                        0x215 (size before relaxing)
 .debug_str     0x00000000000001d3        0x8 /opt/compiler/mspgcc-4.7.3/bin/../lib/gcc/msp430/4.7.3/mcpu-430x/mmpy-16/msr20/mc20/libgcc.a(_gt_sf.o)
                                        0x215 (size before relaxing)
 .debug_str     0x00000000000001db       0x30 /opt/compiler/mspgcc-4.7.3/bin/../lib/gcc/msp430/4.7.3/mcpu-430x/mmpy-16/msr20/mc20/libgcc.a(_si_to_sf.o)
                                        0x1f1 (size before relaxing)
 .debug_str     0x000000000000020b       0x7a /opt/compiler/mspgcc-4.7.3/bin/../lib/gcc/msp430/4.7.3/mcpu-430x/mmpy-16/msr20/mc20/libgcc.a(_clzsi2.o)
                                        0x16c (size before relaxing)
 .debug_str     0x0000000000000285       0x14 /opt/compiler/mspgcc-4.7.3/bin/../lib/gcc/msp430/4.7.3/mcpu-430x/mmpy-16/msr20/mc20/libgcc.a(_pack_sf.o)
                                        0x201 (size before relaxing)
 .debug_str     0x0000000000000000      0x1e3 /opt/compiler/mspgcc-4.7.3/bin/../lib/gcc/msp430/4.7.3/mcpu-430x/mmpy-16/msr20/mc20/libgcc.a(_unpack_sf.o)
 .debug_str     0x0000000000000000      0x1c7 /opt/compiler/mspgcc-4.7.3/bin/../lib/gcc/msp430/4.7.3/mcpu-430x/mmpy-16/msr20/mc20/libgcc.a(_fpcmp_parts_sf.o)
 .debug_str     0x0000000000000299       0x57 /opt/compiler/mspgcc-4.7.3/bin/../lib/gcc/msp430/4.7.3/mcpu-430x/mmpy-16/msr20/mc20/libgcc.a(_clz.o)
                                        0x1a6 (size before relaxing)
 .debug_str     0x00000000000002f0       0xb3 /opt/compiler/mspgcc-4.7.3/bin/../lib/gcc/msp430/4.7.3/../../../../msp430/lib/mcpu-430x/mmpy-16/msr20/mc20/libc.a(strtol.o)
                                        0x14a (size before relaxing)
 .debug_str     0x00000000000003a3       0x40 /opt/compiler/mspgcc-4.7.3/bin/../lib/gcc/msp430/4.7.3/../../../../msp430/lib/mcpu-430x/mmpy-16/msr20/mc20/libc.a(printf.o)
                                        0x149 (size before relaxing)
 .debug_str     0x00000000000003e3       0x75 /opt/compiler/mspgcc-4.7.3/bin/../lib/gcc/msp430/4.7.3/../../../../msp430/lib/mcpu-430x/mmpy-16/msr20/mc20/libc.a(sprintf.o)
                                        0x1ae (size before relaxing)
 .debug_str     0x0000000000000458      0x222 /opt/compiler/mspgcc-4.7.3/bin/../lib/gcc/msp430/4.7.3/../../../../msp430/lib/mcpu-430x/mmpy-16/msr20/mc20/libc.a(vuprintf.o)
                                        0x3af (size before relaxing)
 .debug_str     0x000000000000067a       0x1d /opt/compiler/mspgcc-4.7.3/bin/../lib/gcc/msp430/4.7.3/../../../../msp430/lib/mcpu-430x/mmpy-16/msr20/mc20/libc.a(puts.o)
                                        0x10e (size before relaxing)
 .debug_str     0x0000000000000697       0x2f /opt/compiler/mspgcc-4.7.3/bin/../lib/gcc/msp430/4.7.3/../../../../msp430/lib/mcpu-430x/mmpy-16/msr20/mc20/libc.a(rand.o)
                                        0x125 (size before relaxing)
 .debug_str     0x00000000000006c6       0x19 /opt/compiler/mspgcc-4.7.3/bin/../lib/gcc/msp430/4.7.3/../../../../msp430/lib/mcpu-430x/mmpy-16/msr20/mc20/libc.a(strchr.o)
                                        0x10a (size before relaxing)
 .debug_str     0x00000000000006df       0x19 /opt/compiler/mspgcc-4.7.3/bin/../lib/gcc/msp430/4.7.3/../../../../msp430/lib/mcpu-430x/mmpy-16/msr20/mc20/libc.a(strcmp.o)
                                        0x10a (size before relaxing)
 .debug_str     0x00000000000006f8       0x19 /opt/compiler/mspgcc-4.7.3/bin/../lib/gcc/msp430/4.7.3/../../../../msp430/lib/mcpu-430x/mmpy-16/msr20/mc20/libc.a(memcmp.o)
                                        0x111 (size before relaxing)
 .debug_str     0x0000000000000711       0x23 /opt/compiler/mspgcc-4.7.3/bin/../lib/gcc/msp430/4.7.3/../../../../msp430/lib/mcpu-430x/mmpy-16/msr20/mc20/libc.a(strcpy.o)
                                        0x114 (size before relaxing)
 .debug_str     0x0000000000000734       0x3e /opt/compiler/mspgcc-4.7.3/bin/../lib/gcc/msp430/4.7.3/../../../../msp430/lib/mcpu-430x/mmpy-16/msr20/mc20/libc.a(memcpy.o)
                                        0x13f (size before relaxing)
 .debug_str     0x0000000000000772       0x1b /opt/compiler/mspgcc-4.7.3/bin/../lib/gcc/msp430/4.7.3/../../../../msp430/lib/mcpu-430x/mmpy-16/msr20/mc20/libc.a(memmove.o)
                                        0x141 (size before relaxing)
 .debug_str     0x000000000000078d       0x26 /opt/compiler/mspgcc-4.7.3/bin/../lib/gcc/msp430/4.7.3/../../../../msp430/lib/mcpu-430x/mmpy-16/msr20/mc20/libc.a(memset.o)
                                        0x13d (size before relaxing)
 .debug_str     0x00000000000007b3       0x19 /opt/compiler/mspgcc-4.7.3/bin/../lib/gcc/msp430/4.7.3/../../../../msp430/lib/mcpu-430x/mmpy-16/msr20/mc20/libc.a(strcat.o)
                                        0x116 (size before relaxing)
 .debug_str     0x00000000000007cc       0x11 /opt/compiler/mspgcc-4.7.3/bin/../lib/gcc/msp430/4.7.3/../../../../msp430/lib/mcpu-430x/mmpy-16/msr20/mc20/libc.a(errno.o)
                                         0x78 (size before relaxing)

.debug_loc      0x0000000000000000     0x2162
 *(.debug_loc)
 .debug_loc     0x0000000000000000       0x7c /opt/compiler/mspgcc-4.7.3/bin/../lib/gcc/msp430/4.7.3/mcpu-430x/mmpy-16/msr20/mc20/libgcc.a(_eq_sf.o)
 .debug_loc     0x000000000000007c       0x7c /opt/compiler/mspgcc-4.7.3/bin/../lib/gcc/msp430/4.7.3/mcpu-430x/mmpy-16/msr20/mc20/libgcc.a(_gt_sf.o)
 .debug_loc     0x00000000000000f8      0x145 /opt/compiler/mspgcc-4.7.3/bin/../lib/gcc/msp430/4.7.3/mcpu-430x/mmpy-16/msr20/mc20/libgcc.a(_si_to_sf.o)
 .debug_loc     0x000000000000023d       0x9e /opt/compiler/mspgcc-4.7.3/bin/../lib/gcc/msp430/4.7.3/mcpu-430x/mmpy-16/msr20/mc20/libgcc.a(_clzsi2.o)
 .debug_loc     0x00000000000002db      0x289 /opt/compiler/mspgcc-4.7.3/bin/../lib/gcc/msp430/4.7.3/mcpu-430x/mmpy-16/msr20/mc20/libgcc.a(_pack_sf.o)
 .debug_loc     0x0000000000000564      0x12c /opt/compiler/mspgcc-4.7.3/bin/../lib/gcc/msp430/4.7.3/mcpu-430x/mmpy-16/msr20/mc20/libgcc.a(_unpack_sf.o)
 .debug_loc     0x0000000000000690      0x111 /opt/compiler/mspgcc-4.7.3/bin/../lib/gcc/msp430/4.7.3/mcpu-430x/mmpy-16/msr20/mc20/libgcc.a(_fpcmp_parts_sf.o)
 .debug_loc     0x00000000000007a1      0x283 /opt/compiler/mspgcc-4.7.3/bin/../lib/gcc/msp430/4.7.3/../../../../msp430/lib/mcpu-430x/mmpy-16/msr20/mc20/libc.a(strtol.o)
 .debug_loc     0x0000000000000a24       0x78 /opt/compiler/mspgcc-4.7.3/bin/../lib/gcc/msp430/4.7.3/../../../../msp430/lib/mcpu-430x/mmpy-16/msr20/mc20/libc.a(printf.o)
 .debug_loc     0x0000000000000a9c      0x1d5 /opt/compiler/mspgcc-4.7.3/bin/../lib/gcc/msp430/4.7.3/../../../../msp430/lib/mcpu-430x/mmpy-16/msr20/mc20/libc.a(sprintf.o)
 .debug_loc     0x0000000000000c71      0xbfe /opt/compiler/mspgcc-4.7.3/bin/../lib/gcc/msp430/4.7.3/../../../../msp430/lib/mcpu-430x/mmpy-16/msr20/mc20/libc.a(vuprintf.o)
 .debug_loc     0x000000000000186f       0x3e /opt/compiler/mspgcc-4.7.3/bin/../lib/gcc/msp430/4.7.3/../../../../msp430/lib/mcpu-430x/mmpy-16/msr20/mc20/libc.a(puts.o)
 .debug_loc     0x00000000000018ad       0x78 /opt/compiler/mspgcc-4.7.3/bin/../lib/gcc/msp430/4.7.3/../../../../msp430/lib/mcpu-430x/mmpy-16/msr20/mc20/libc.a(rand.o)
 .debug_loc     0x0000000000001925       0x3a /opt/compiler/mspgcc-4.7.3/bin/../lib/gcc/msp430/4.7.3/../../../../msp430/lib/mcpu-430x/mmpy-16/msr20/mc20/libc.a(strchr.o)
 .debug_loc     0x000000000000195f       0x52 /opt/compiler/mspgcc-4.7.3/bin/../lib/gcc/msp430/4.7.3/../../../../msp430/lib/mcpu-430x/mmpy-16/msr20/mc20/libc.a(strcmp.o)
 .debug_loc     0x00000000000019b1       0x6d /opt/compiler/mspgcc-4.7.3/bin/../lib/gcc/msp430/4.7.3/../../../../msp430/lib/mcpu-430x/mmpy-16/msr20/mc20/libc.a(memcmp.o)
 .debug_loc     0x0000000000001a1e       0x3c /opt/compiler/mspgcc-4.7.3/bin/../lib/gcc/msp430/4.7.3/../../../../msp430/lib/mcpu-430x/mmpy-16/msr20/mc20/libc.a(strcpy.o)
 .debug_loc     0x0000000000001a5a      0x2c3 /opt/compiler/mspgcc-4.7.3/bin/../lib/gcc/msp430/4.7.3/../../../../msp430/lib/mcpu-430x/mmpy-16/msr20/mc20/libc.a(memcpy.o)
 .debug_loc     0x0000000000001d1d      0x2c3 /opt/compiler/mspgcc-4.7.3/bin/../lib/gcc/msp430/4.7.3/../../../../msp430/lib/mcpu-430x/mmpy-16/msr20/mc20/libc.a(memmove.o)
 .debug_loc     0x0000000000001fe0      0x139 /opt/compiler/mspgcc-4.7.3/bin/../lib/gcc/msp430/4.7.3/../../../../msp430/lib/mcpu-430x/mmpy-16/msr20/mc20/libc.a(memset.o)
 .debug_loc     0x0000000000002119       0x49 /opt/compiler/mspgcc-4.7.3/bin/../lib/gcc/msp430/4.7.3/../../../../msp430/lib/mcpu-430x/mmpy-16/msr20/mc20/libc.a(strcat.o)

.debug_macinfo
 *(.debug_macinfo)

.debug_pubtypes
 *(.debug_pubtypes)

.debug_ranges   0x0000000000000000      0x1e0
 *(.debug_ranges)
 .debug_ranges  0x0000000000000000       0x10 /opt/compiler/mspgcc-4.7.3/bin/../lib/gcc/msp430/4.7.3/mcpu-430x/mmpy-16/msr20/mc20/libgcc.a(_eq_sf.o)
 .debug_ranges  0x0000000000000010       0x10 /opt/compiler/mspgcc-4.7.3/bin/../lib/gcc/msp430/4.7.3/mcpu-430x/mmpy-16/msr20/mc20/libgcc.a(_gt_sf.o)
 .debug_ranges  0x0000000000000020       0x10 /opt/compiler/mspgcc-4.7.3/bin/../lib/gcc/msp430/4.7.3/mcpu-430x/mmpy-16/msr20/mc20/libgcc.a(_si_to_sf.o)
 .debug_ranges  0x0000000000000030       0x28 /opt/compiler/mspgcc-4.7.3/bin/../lib/gcc/msp430/4.7.3/mcpu-430x/mmpy-16/msr20/mc20/libgcc.a(_clzsi2.o)
 .debug_ranges  0x0000000000000058       0x10 /opt/compiler/mspgcc-4.7.3/bin/../lib/gcc/msp430/4.7.3/mcpu-430x/mmpy-16/msr20/mc20/libgcc.a(_pack_sf.o)
 .debug_ranges  0x0000000000000068       0x10 /opt/compiler/mspgcc-4.7.3/bin/../lib/gcc/msp430/4.7.3/mcpu-430x/mmpy-16/msr20/mc20/libgcc.a(_unpack_sf.o)
 .debug_ranges  0x0000000000000078       0x10 /opt/compiler/mspgcc-4.7.3/bin/../lib/gcc/msp430/4.7.3/mcpu-430x/mmpy-16/msr20/mc20/libgcc.a(_fpcmp_parts_sf.o)
 .debug_ranges  0x0000000000000088       0x10 /opt/compiler/mspgcc-4.7.3/bin/../lib/gcc/msp430/4.7.3/../../../../msp430/lib/mcpu-430x/mmpy-16/msr20/mc20/libc.a(strtol.o)
 .debug_ranges  0x0000000000000098       0x18 /opt/compiler/mspgcc-4.7.3/bin/../lib/gcc/msp430/4.7.3/../../../../msp430/lib/mcpu-430x/mmpy-16/msr20/mc20/libc.a(printf.o)
 .debug_ranges  0x00000000000000b0       0x38 /opt/compiler/mspgcc-4.7.3/bin/../lib/gcc/msp430/4.7.3/../../../../msp430/lib/mcpu-430x/mmpy-16/msr20/mc20/libc.a(sprintf.o)
 .debug_ranges  0x00000000000000e8       0x48 /opt/compiler/mspgcc-4.7.3/bin/../lib/gcc/msp430/4.7.3/../../../../msp430/lib/mcpu-430x/mmpy-16/msr20/mc20/libc.a(vuprintf.o)
 .debug_ranges  0x0000000000000130       0x10 /opt/compiler/mspgcc-4.7.3/bin/../lib/gcc/msp430/4.7.3/../../../../msp430/lib/mcpu-430x/mmpy-16/msr20/mc20/libc.a(puts.o)
 .debug_ranges  0x0000000000000140       0x20 /opt/compiler/mspgcc-4.7.3/bin/../lib/gcc/msp430/4.7.3/../../../../msp430/lib/mcpu-430x/mmpy-16/msr20/mc20/libc.a(rand.o)
 .debug_ranges  0x0000000000000160       0x10 /opt/compiler/mspgcc-4.7.3/bin/../lib/gcc/msp430/4.7.3/../../../../msp430/lib/mcpu-430x/mmpy-16/msr20/mc20/libc.a(strchr.o)
 .debug_ranges  0x0000000000000170       0x10 /opt/compiler/mspgcc-4.7.3/bin/../lib/gcc/msp430/4.7.3/../../../../msp430/lib/mcpu-430x/mmpy-16/msr20/mc20/libc.a(strcmp.o)
 .debug_ranges  0x0000000000000180       0x10 /opt/compiler/mspgcc-4.7.3/bin/../lib/gcc/msp430/4.7.3/../../../../msp430/lib/mcpu-430x/mmpy-16/msr20/mc20/libc.a(memcmp.o)
 .debug_ranges  0x0000000000000190       0x10 /opt/compiler/mspgcc-4.7.3/bin/../lib/gcc/msp430/4.7.3/../../../../msp430/lib/mcpu-430x/mmpy-16/msr20/mc20/libc.a(strcpy.o)
 .debug_ranges  0x00000000000001a0       0x10 /opt/compiler/mspgcc-4.7.3/bin/../lib/gcc/msp430/4.7.3/../../../../msp430/lib/mcpu-430x/mmpy-16/msr20/mc20/libc.a(memcpy.o)
 .debug_ranges  0x00000000000001b0       0x10 /opt/compiler/mspgcc-4.7.3/bin/../lib/gcc/msp430/4.7.3/../../../../msp430/lib/mcpu-430x/mmpy-16/msr20/mc20/libc.a(memmove.o)
 .debug_ranges  0x00000000000001c0       0x10 /opt/compiler/mspgcc-4.7.3/bin/../lib/gcc/msp430/4.7.3/../../../../msp430/lib/mcpu-430x/mmpy-16/msr20/mc20/libc.a(memset.o)
 .debug_ranges  0x00000000000001d0       0x10 /opt/compiler/mspgcc-4.7.3/bin/../lib/gcc/msp430/4.7.3/../../../../msp430/lib/mcpu-430x/mmpy-16/msr20/mc20/libc.a(strcat.o)
                0x0000000000003100                PROVIDE (__stack, (ORIGIN (ram) + 0x2000))
                0x000000000000fd84                __data_start_rom = _etext
                0x000000000000ffba                __data_end_rom = (_etext + SIZEOF (.data))
OUTPUT(build/z1/udp-server.z1 elf32-msp430)

.gnu.attributes
                0x0000000000000000       0x11
 .gnu.attributes
                0x0000000000000000       0x11 /opt/compiler/mspgcc-4.7.3/bin/../lib/gcc/msp430/4.7.3/mcpu-430x/mmpy-16/msr20/mc20/crt0ivtbl32.o
 .gnu.attributes
                0x0000000000000011       0x11 udp-server.o
 .gnu.attributes
                0x0000000000000022       0x11 build/z1/obj/contiki-main.o
 .gnu.attributes
                0x0000000000000033       0x11 build/z1/contiki-ng-z1.a(uart0-putchar.o)
 .gnu.attributes
                0x0000000000000044       0x11 build/z1/contiki-ng-z1.a(platform.o)
 .gnu.attributes
                0x0000000000000055       0x11 build/z1/contiki-ng-z1.a(msp430.o)
 .gnu.attributes
                0x0000000000000066       0x11 build/z1/contiki-ng-z1.a(clock.o)
 .gnu.attributes
                0x0000000000000077       0x11 build/z1/contiki-ng-z1.a(watchdog.o)
 .gnu.attributes
                0x0000000000000088       0x11 build/z1/contiki-ng-z1.a(rtimer-arch.o)
 .gnu.attributes
                0x0000000000000099       0x11 build/z1/contiki-ng-z1.a(serial-shell.o)
 .gnu.attributes
                0x00000000000000aa       0x11 build/z1/contiki-ng-z1.a(orchestra-rule-)
 .gnu.attributes
                0x00000000000000bb       0x11 build/z1/contiki-ng-z1.a(orchestra-rule-)
 .gnu.attributes
                0x00000000000000cc       0x11 build/z1/contiki-ng-z1.a(orchestra.o)
 .gnu.attributes
                0x00000000000000dd       0x11 build/z1/contiki-ng-z1.a(orchestra-rule-)
 .gnu.attributes
                0x00000000000000ee       0x11 build/z1/contiki-ng-z1.a(autostart.o)
 .gnu.attributes
                0x00000000000000ff       0x11 build/z1/contiki-ng-z1.a(ctimer.o)
 .gnu.attributes
                0x0000000000000110       0x11 build/z1/contiki-ng-z1.a(energest.o)
 .gnu.attributes
                0x0000000000000121       0x11 build/z1/contiki-ng-z1.a(etimer.o)
 .gnu.attributes
                0x0000000000000132       0x11 build/z1/contiki-ng-z1.a(log.o)
 .gnu.attributes
                0x0000000000000143       0x11 build/z1/contiki-ng-z1.a(rtimer.o)
 .gnu.attributes
                0x0000000000000154       0x11 build/z1/contiki-ng-z1.a(node-id.o)
 .gnu.attributes
                0x0000000000000165       0x11 build/z1/contiki-ng-z1.a(process.o)
 .gnu.attributes
                0x0000000000000176       0x11 build/z1/contiki-ng-z1.a(timer.o)
 .gnu.attributes
                0x0000000000000187       0x11 build/z1/contiki-ng-z1.a(stack-check.o)
 .gnu.attributes
                0x0000000000000198       0x11 build/z1/contiki-ng-z1.a(list.o)
 .gnu.attributes
                0x00000000000001a9       0x11 build/z1/contiki-ng-z1.a(random.o)
 .gnu.attributes
                0x00000000000001ba       0x11 build/z1/contiki-ng-z1.a(serial-line.o)
 .gnu.attributes
                0x00000000000001cb       0x11 build/z1/contiki-ng-z1.a(queuebuf.o)
 .gnu.attributes
                0x00000000000001dc       0x11 build/z1/contiki-ng-z1.a(packetbuf.o)
 .gnu.attributes
                0x00000000000001ed       0x11 build/z1/contiki-ng-z1.a(netstack.o)
 .gnu.attributes
                0x00000000000001fe       0x11 build/z1/contiki-ng-z1.a(linkaddr.o)
 .gnu.attributes
                0x000000000000020f       0x11 build/z1/contiki-ng-z1.a(tsch.o)
 .gnu.attributes
                0x0000000000000220       0x11 build/z1/contiki-ng-z1.a(tsch-queue.o)
 .gnu.attributes
                0x0000000000000231       0x11 build/z1/contiki-ng-z1.a(tsch-schedule.o)
 .gnu.attributes
                0x0000000000000242       0x11 build/z1/contiki-ng-z1.a(tsch-slot-opera)
 .gnu.attributes
                0x0000000000000253       0x11 build/z1/contiki-ng-z1.a(tsch-packet.o)
 .gnu.attributes
                0x0000000000000264       0x11 build/z1/contiki-ng-z1.a(tsch-security.o)
 .gnu.attributes
                0x0000000000000275       0x11 build/z1/contiki-ng-z1.a(tsch-rpl.o)
 .gnu.attributes
                0x0000000000000286       0x11 build/z1/contiki-ng-z1.a(tsch-adaptive-t)
 .gnu.attributes
                0x0000000000000297       0x11 build/z1/contiki-ng-z1.a(uip-ds6.o)
 .gnu.attributes
                0x00000000000002a8       0x11 build/z1/contiki-ng-z1.a(uiplib.o)
 .gnu.attributes
                0x00000000000002b9       0x11 build/z1/contiki-ng-z1.a(uip-ds6-route.o)
 .gnu.attributes
                0x00000000000002ca       0x11 build/z1/contiki-ng-z1.a(tcpip.o)
 .gnu.attributes
                0x00000000000002db       0x11 build/z1/contiki-ng-z1.a(uip6.o)
 .gnu.attributes
                0x00000000000002ec       0x11 build/z1/contiki-ng-z1.a(uip-ds6-nbr.o)
 .gnu.attributes
                0x00000000000002fd       0x11 build/z1/contiki-ng-z1.a(uip-nd6.o)
 .gnu.attributes
                0x000000000000030e       0x11 build/z1/contiki-ng-z1.a(simple-udp.o)
 .gnu.attributes
                0x000000000000031f       0x11 build/z1/contiki-ng-z1.a(sicslowpan.o)
 .gnu.attributes
                0x0000000000000330       0x11 build/z1/contiki-ng-z1.a(rpl-neighbor.o)
 .gnu.attributes
                0x0000000000000341       0x11 build/z1/contiki-ng-z1.a(rpl-dag.o)
 .gnu.attributes
                0x0000000000000352       0x11 build/z1/contiki-ng-z1.a(rpl-timers.o)
 .gnu.attributes
                0x0000000000000363       0x11 build/z1/contiki-ng-z1.a(rpl.o)
 .gnu.attributes
                0x0000000000000374       0x11 build/z1/contiki-ng-z1.a(rpl-mrhof.o)
 .gnu.attributes
                0x0000000000000385       0x11 build/z1/contiki-ng-z1.a(rpl-icmp6.o)
 .gnu.attributes
                0x0000000000000396       0x11 build/z1/contiki-ng-z1.a(rpl-dag-root.o)
 .gnu.attributes
                0x00000000000003a7       0x11 build/z1/contiki-ng-z1.a(contiki-z1-plat)
 .gnu.attributes
                0x00000000000003b8       0x11 build/z1/contiki-ng-z1.a(leds.o)
 .gnu.attributes
                0x00000000000003c9       0x11 build/z1/contiki-ng-z1.a(xmem.o)
 .gnu.attributes
                0x00000000000003da       0x11 build/z1/contiki-ng-z1.a(spi-legacy.o)
 .gnu.attributes
                0x00000000000003eb       0x11 build/z1/contiki-ng-z1.a(cc2420.o)
 .gnu.attributes
                0x00000000000003fc       0x11 build/z1/contiki-ng-z1.a(cc2420-arch.o)
 .gnu.attributes
                0x000000000000040d       0x11 build/z1/contiki-ng-z1.a(cc2420-arch-sfd)
 .gnu.attributes
                0x000000000000041e       0x11 build/z1/contiki-ng-z1.a(node-id-z1.o)
 .gnu.attributes
                0x000000000000042f       0x11 build/z1/contiki-ng-z1.a(sensors.o)
 .gnu.attributes
                0x0000000000000440       0x11 build/z1/contiki-ng-z1.a(uart0.o)
 .gnu.attributes
                0x0000000000000451       0x11 build/z1/contiki-ng-z1.a(z1-sensors.o)
 .gnu.attributes
                0x0000000000000462       0x11 build/z1/contiki-ng-z1.a(adxl345.o)
 .gnu.attributes
                0x0000000000000473       0x11 build/z1/contiki-ng-z1.a(tmp102.o)
 .gnu.attributes
                0x0000000000000484       0x11 build/z1/contiki-ng-z1.a(leds-arch.o)
 .gnu.attributes
                0x0000000000000495       0x11 build/z1/contiki-ng-z1.a(int-master.o)
 .gnu.attributes
                0x00000000000004a6       0x11 build/z1/contiki-ng-z1.a(shell.o)
 .gnu.attributes
                0x00000000000004b7       0x11 build/z1/contiki-ng-z1.a(shell-commands.)
 .gnu.attributes
                0x00000000000004c8       0x11 build/z1/contiki-ng-z1.a(stimer.o)
 .gnu.attributes
                0x00000000000004d9       0x11 build/z1/contiki-ng-z1.a(ringbufindex.o)
 .gnu.attributes
                0x00000000000004ea       0x11 build/z1/contiki-ng-z1.a(memb.o)
 .gnu.attributes
                0x00000000000004fb       0x11 build/z1/contiki-ng-z1.a(nbr-table.o)
 .gnu.attributes
                0x000000000000050c       0x11 build/z1/contiki-ng-z1.a(link-stats.o)
 .gnu.attributes
                0x000000000000051d       0x11 build/z1/contiki-ng-z1.a(mac-sequence.o)
 .gnu.attributes
                0x000000000000052e       0x11 build/z1/contiki-ng-z1.a(mac.o)
 .gnu.attributes
                0x000000000000053f       0x11 build/z1/contiki-ng-z1.a(frame802154e-ie)
 .gnu.attributes
                0x0000000000000550       0x11 build/z1/contiki-ng-z1.a(framer-802154.o)
 .gnu.attributes
                0x0000000000000561       0x11 build/z1/contiki-ng-z1.a(frame802154.o)
 .gnu.attributes
                0x0000000000000572       0x11 build/z1/contiki-ng-z1.a(cc2420-tsch-15m)
 .gnu.attributes
                0x0000000000000583       0x11 build/z1/contiki-ng-z1.a(uipbuf.o)
 .gnu.attributes
                0x0000000000000594       0x11 build/z1/contiki-ng-z1.a(uip-icmp6.o)
 .gnu.attributes
                0x00000000000005a5       0x11 build/z1/contiki-ng-z1.a(uip-sr.o)
 .gnu.attributes
                0x00000000000005b6       0x11 build/z1/contiki-ng-z1.a(rpl-nbr-policy.)
 .gnu.attributes
                0x00000000000005c7       0x11 build/z1/contiki-ng-z1.a(rpl-ext-header.)
 .gnu.attributes
                0x00000000000005d8       0x11 build/z1/contiki-ng-z1.a(i2cmaster.o)
 .gnu.attributes
                0x00000000000005e9       0x11 build/z1/contiki-ng-z1.a(button-sensor.o)
 .gnu.attributes
                0x00000000000005fa       0x11 /opt/compiler/mspgcc-4.7.3/bin/../lib/gcc/msp430/4.7.3/mcpu-430x/mmpy-16/msr20/mc20/libgcc.a(_mulsi3.o)
 .gnu.attributes
                0x000000000000060b       0x11 /opt/compiler/mspgcc-4.7.3/bin/../lib/gcc/msp430/4.7.3/mcpu-430x/mmpy-16/msr20/mc20/libgcc.a(_mulsidi3.o)
 .gnu.attributes
                0x000000000000061c       0x11 /opt/compiler/mspgcc-4.7.3/bin/../lib/gcc/msp430/4.7.3/mcpu-430x/mmpy-16/msr20/mc20/libgcc.a(_muldi3.o)
 .gnu.attributes
                0x000000000000062d       0x11 /opt/compiler/mspgcc-4.7.3/bin/../lib/gcc/msp430/4.7.3/mcpu-430x/mmpy-16/msr20/mc20/libgcc.a(_udivmod16.o)
 .gnu.attributes
                0x000000000000063e       0x11 /opt/compiler/mspgcc-4.7.3/bin/../lib/gcc/msp430/4.7.3/mcpu-430x/mmpy-16/msr20/mc20/libgcc.a(_divmod16.o)
 .gnu.attributes
                0x000000000000064f       0x11 /opt/compiler/mspgcc-4.7.3/bin/../lib/gcc/msp430/4.7.3/mcpu-430x/mmpy-16/msr20/mc20/libgcc.a(_udivmod32.o)
 .gnu.attributes
                0x0000000000000660       0x11 /opt/compiler/mspgcc-4.7.3/bin/../lib/gcc/msp430/4.7.3/mcpu-430x/mmpy-16/msr20/mc20/libgcc.a(_divmod32.o)
 .gnu.attributes
                0x0000000000000671       0x11 /opt/compiler/mspgcc-4.7.3/bin/../lib/gcc/msp430/4.7.3/mcpu-430x/mmpy-16/msr20/mc20/libgcc.a(_divmod64.o)
 .gnu.attributes
                0x0000000000000682       0x11 /opt/compiler/mspgcc-4.7.3/bin/../lib/gcc/msp430/4.7.3/mcpu-430x/mmpy-16/msr20/mc20/libgcc.a(_eq_sf.o)
 .gnu.attributes
                0x0000000000000693       0x11 /opt/compiler/mspgcc-4.7.3/bin/../lib/gcc/msp430/4.7.3/mcpu-430x/mmpy-16/msr20/mc20/libgcc.a(_gt_sf.o)
 .gnu.attributes
                0x00000000000006a4       0x11 /opt/compiler/mspgcc-4.7.3/bin/../lib/gcc/msp430/4.7.3/mcpu-430x/mmpy-16/msr20/mc20/libgcc.a(_si_to_sf.o)
 .gnu.attributes
                0x00000000000006b5       0x11 /opt/compiler/mspgcc-4.7.3/bin/../lib/gcc/msp430/4.7.3/mcpu-430x/mmpy-16/msr20/mc20/libgcc.a(_udivmod64.o)
 .gnu.attributes
                0x00000000000006c6       0x11 /opt/compiler/mspgcc-4.7.3/bin/../lib/gcc/msp430/4.7.3/mcpu-430x/mmpy-16/msr20/mc20/libgcc.a(_clzsi2.o)
 .gnu.attributes
                0x00000000000006d7       0x11 /opt/compiler/mspgcc-4.7.3/bin/../lib/gcc/msp430/4.7.3/mcpu-430x/mmpy-16/msr20/mc20/libgcc.a(_pack_sf.o)
 .gnu.attributes
                0x00000000000006e8       0x11 /opt/compiler/mspgcc-4.7.3/bin/../lib/gcc/msp430/4.7.3/mcpu-430x/mmpy-16/msr20/mc20/libgcc.a(_unpack_sf.o)
 .gnu.attributes
                0x00000000000006f9       0x11 /opt/compiler/mspgcc-4.7.3/bin/../lib/gcc/msp430/4.7.3/mcpu-430x/mmpy-16/msr20/mc20/libgcc.a(_fpcmp_parts_sf.o)
 .gnu.attributes
                0x000000000000070a       0x11 /opt/compiler/mspgcc-4.7.3/bin/../lib/gcc/msp430/4.7.3/mcpu-430x/mmpy-16/msr20/mc20/libgcc.a(_clz.o)
 .gnu.attributes
                0x000000000000071b       0x11 /opt/compiler/mspgcc-4.7.3/bin/../lib/gcc/msp430/4.7.3/../../../../msp430/lib/mcpu-430x/mmpy-16/msr20/mc20/libc.a(strtol.o)
 .gnu.attributes
                0x000000000000072c       0x11 /opt/compiler/mspgcc-4.7.3/bin/../lib/gcc/msp430/4.7.3/../../../../msp430/lib/mcpu-430x/mmpy-16/msr20/mc20/libc.a(printf.o)
 .gnu.attributes
                0x000000000000073d       0x11 /opt/compiler/mspgcc-4.7.3/bin/../lib/gcc/msp430/4.7.3/../../../../msp430/lib/mcpu-430x/mmpy-16/msr20/mc20/libc.a(sprintf.o)
 .gnu.attributes
                0x000000000000074e       0x11 /opt/compiler/mspgcc-4.7.3/bin/../lib/gcc/msp430/4.7.3/../../../../msp430/lib/mcpu-430x/mmpy-16/msr20/mc20/libc.a(vuprintf.o)
 .gnu.attributes
                0x000000000000075f       0x11 /opt/compiler/mspgcc-4.7.3/bin/../lib/gcc/msp430/4.7.3/../../../../msp430/lib/mcpu-430x/mmpy-16/msr20/mc20/libc.a(puts.o)
 .gnu.attributes
                0x0000000000000770       0x11 /opt/compiler/mspgcc-4.7.3/bin/../lib/gcc/msp430/4.7.3/../../../../msp430/lib/mcpu-430x/mmpy-16/msr20/mc20/libc.a(rand.o)
 .gnu.attributes
                0x0000000000000781       0x11 /opt/compiler/mspgcc-4.7.3/bin/../lib/gcc/msp430/4.7.3/../../../../msp430/lib/mcpu-430x/mmpy-16/msr20/mc20/libc.a(strchr.o)
 .gnu.attributes
                0x0000000000000792       0x11 /opt/compiler/mspgcc-4.7.3/bin/../lib/gcc/msp430/4.7.3/../../../../msp430/lib/mcpu-430x/mmpy-16/msr20/mc20/libc.a(strcmp.o)
 .gnu.attributes
                0x00000000000007a3       0x11 /opt/compiler/mspgcc-4.7.3/bin/../lib/gcc/msp430/4.7.3/../../../../msp430/lib/mcpu-430x/mmpy-16/msr20/mc20/libc.a(memcmp.o)
 .gnu.attributes
                0x00000000000007b4       0x11 /opt/compiler/mspgcc-4.7.3/bin/../lib/gcc/msp430/4.7.3/../../../../msp430/lib/mcpu-430x/mmpy-16/msr20/mc20/libc.a(strcpy.o)
 .gnu.attributes
                0x00000000000007c5       0x11 /opt/compiler/mspgcc-4.7.3/bin/../lib/gcc/msp430/4.7.3/../../../../msp430/lib/mcpu-430x/mmpy-16/msr20/mc20/libc.a(memcpy.o)
 .gnu.attributes
                0x00000000000007d6       0x11 /opt/compiler/mspgcc-4.7.3/bin/../lib/gcc/msp430/4.7.3/../../../../msp430/lib/mcpu-430x/mmpy-16/msr20/mc20/libc.a(memmove.o)
 .gnu.attributes
                0x00000000000007e7       0x11 /opt/compiler/mspgcc-4.7.3/bin/../lib/gcc/msp430/4.7.3/../../../../msp430/lib/mcpu-430x/mmpy-16/msr20/mc20/libc.a(memset.o)
 .gnu.attributes
                0x00000000000007f8       0x11 /opt/compiler/mspgcc-4.7.3/bin/../lib/gcc/msp430/4.7.3/../../../../msp430/lib/mcpu-430x/mmpy-16/msr20/mc20/libc.a(strcat.o)
 .gnu.attributes
                0x0000000000000809       0x11 /opt/compiler/mspgcc-4.7.3/bin/../lib/gcc/msp430/4.7.3/../../../../msp430/lib/mcpu-430x/mmpy-16/msr20/mc20/libc.a(ldiv.o)
 .gnu.attributes
                0x000000000000081a       0x11 /opt/compiler/mspgcc-4.7.3/bin/../lib/gcc/msp430/4.7.3/../../../../msp430/lib/mcpu-430x/mmpy-16/msr20/mc20/libc.a(errno.o)
 .gnu.attributes
                0x000000000000082b       0x11 /opt/compiler/mspgcc-4.7.3/bin/../lib/gcc/msp430/4.7.3/mcpu-430x/mmpy-16/msr20/mc20/libcrt0.a(_reset_vector__.o)
 .gnu.attributes
                0x000000000000083c       0x11 /opt/compiler/mspgcc-4.7.3/bin/../lib/gcc/msp430/4.7.3/mcpu-430x/mmpy-16/msr20/mc20/libcrt0.a(__watchdog_support.o)
 .gnu.attributes
                0x000000000000084d       0x11 /opt/compiler/mspgcc-4.7.3/bin/../lib/gcc/msp430/4.7.3/mcpu-430x/mmpy-16/msr20/mc20/libcrt0.a(__init_stack.o)
 .gnu.attributes
                0x000000000000085e       0x11 /opt/compiler/mspgcc-4.7.3/bin/../lib/gcc/msp430/4.7.3/mcpu-430x/mmpy-16/msr20/mc20/libcrt0.a(__low_level_init.o)
 .gnu.attributes
                0x000000000000086f       0x11 /opt/compiler/mspgcc-4.7.3/bin/../lib/gcc/msp430/4.7.3/mcpu-430x/mmpy-16/msr20/mc20/libcrt0.a(_copy_data.o)
 .gnu.attributes
                0x0000000000000880       0x11 /opt/compiler/mspgcc-4.7.3/bin/../lib/gcc/msp430/4.7.3/mcpu-430x/mmpy-16/msr20/mc20/libcrt0.a(_clear_bss.o)
 .gnu.attributes
                0x0000000000000891       0x11 /opt/compiler/mspgcc-4.7.3/bin/../lib/gcc/msp430/4.7.3/mcpu-430x/mmpy-16/msr20/mc20/libcrt0.a(__stop_progExec__.o)
 .gnu.attributes
                0x00000000000008a2       0x11 /opt/compiler/mspgcc-4.7.3/bin/../lib/gcc/msp430/4.7.3/mcpu-430x/mmpy-16/msr20/mc20/libcrt0.a(_endless_loop__.o)
 .gnu.attributes
                0x00000000000008b3       0x11 /opt/compiler/mspgcc-4.7.3/bin/../lib/gcc/msp430/4.7.3/mcpu-430x/mmpy-16/msr20/mc20/libcrt0.a(_unexpected_.o)
